
exploitme-safestack:     file format elf64-x86-64
exploitme-safestack
architecture: i386:x86-64, flags 0x00000112:
EXEC_P, HAS_SYMS, D_PAGED
start address 0x00000000004021b0

Program Header:
    PHDR off    0x0000000000000040 vaddr 0x0000000000400040 paddr 0x0000000000400040 align 2**3
         filesz 0x0000000000000310 memsz 0x0000000000000310 flags r--
  INTERP off    0x0000000000000350 vaddr 0x0000000000400350 paddr 0x0000000000400350 align 2**0
         filesz 0x000000000000001c memsz 0x000000000000001c flags r--
    LOAD off    0x0000000000000000 vaddr 0x0000000000400000 paddr 0x0000000000400000 align 2**12
         filesz 0x00000000000017d8 memsz 0x00000000000017d8 flags r--
    LOAD off    0x0000000000002000 vaddr 0x0000000000402000 paddr 0x0000000000402000 align 2**12
         filesz 0x0000000000000f55 memsz 0x0000000000000f55 flags r-x
    LOAD off    0x0000000000003000 vaddr 0x0000000000403000 paddr 0x0000000000403000 align 2**12
         filesz 0x0000000000000a20 memsz 0x0000000000000a20 flags r--
    LOAD off    0x0000000000003d90 vaddr 0x0000000000404d90 paddr 0x0000000000404d90 align 2**12
         filesz 0x0000000000000380 memsz 0x00000000000003f8 flags rw-
 DYNAMIC off    0x0000000000003da8 vaddr 0x0000000000404da8 paddr 0x0000000000404da8 align 2**3
         filesz 0x0000000000000220 memsz 0x0000000000000220 flags rw-
    NOTE off    0x0000000000000370 vaddr 0x0000000000400370 paddr 0x0000000000400370 align 2**3
         filesz 0x0000000000000020 memsz 0x0000000000000020 flags r--
    NOTE off    0x0000000000000390 vaddr 0x0000000000400390 paddr 0x0000000000400390 align 2**2
         filesz 0x0000000000000044 memsz 0x0000000000000044 flags r--
     TLS off    0x0000000000003d90 vaddr 0x0000000000404d90 paddr 0x0000000000404d90 align 2**3
         filesz 0x0000000000000000 memsz 0x0000000000000020 flags r--
0x6474e553 off    0x0000000000000370 vaddr 0x0000000000400370 paddr 0x0000000000400370 align 2**3
         filesz 0x0000000000000020 memsz 0x0000000000000020 flags r--
EH_FRAME off    0x0000000000003174 vaddr 0x0000000000403174 paddr 0x0000000000403174 align 2**2
         filesz 0x000000000000020c memsz 0x000000000000020c flags r--
   STACK off    0x0000000000000000 vaddr 0x0000000000000000 paddr 0x0000000000000000 align 2**4
         filesz 0x0000000000000000 memsz 0x0000000000000000 flags rw-
   RELRO off    0x0000000000003d90 vaddr 0x0000000000404d90 paddr 0x0000000000404d90 align 2**0
         filesz 0x0000000000000270 memsz 0x0000000000000270 flags r--

Dynamic Section:
  NEEDED               libm.so.6
  NEEDED               libresolv.so.2
  NEEDED               libc.so.6
  NEEDED               ld-linux-x86-64.so.2
  INIT                 0x0000000000402000
  FINI                 0x0000000000402f48
  PREINIT_ARRAY        0x0000000000404d90
  PREINIT_ARRAYSZ      0x0000000000000008
  INIT_ARRAY           0x0000000000404d98
  INIT_ARRAYSZ         0x0000000000000008
  FINI_ARRAY           0x0000000000404da0
  FINI_ARRAYSZ         0x0000000000000008
  GNU_HASH             0x00000000004003d8
  STRTAB               0x0000000000400fa8
  SYMTAB               0x0000000000400648
  STRSZ                0x0000000000000474
  SYMENT               0x0000000000000018
  DEBUG                0x0000000000000000
  PLTGOT               0x0000000000404fe8
  PLTRELSZ             0x0000000000000240
  PLTREL               0x0000000000000007
  JMPREL               0x0000000000401598
  RELA                 0x0000000000401538
  RELASZ               0x0000000000000060
  RELAENT              0x0000000000000018
  VERNEED              0x00000000004014e8
  VERNEEDNUM           0x0000000000000002
  VERSYM               0x000000000040141c

Version References:
  required from ld-linux-x86-64.so.2:
    0x0d696913 0x00 04 GLIBC_2.3
  required from libc.so.6:
    0x069691b4 0x00 03 GLIBC_2.34
    0x09691a75 0x00 02 GLIBC_2.2.5

Sections:
Idx Name          Size      VMA               LMA               File off  Algn
  0 .interp       0000001c  0000000000400350  0000000000400350  00000350  2**0
                  CONTENTS, ALLOC, LOAD, READONLY, DATA
  1 .note.gnu.property 00000020  0000000000400370  0000000000400370  00000370  2**3
                  CONTENTS, ALLOC, LOAD, READONLY, DATA
  2 .note.gnu.build-id 00000024  0000000000400390  0000000000400390  00000390  2**2
                  CONTENTS, ALLOC, LOAD, READONLY, DATA
  3 .note.ABI-tag 00000020  00000000004003b4  00000000004003b4  000003b4  2**2
                  CONTENTS, ALLOC, LOAD, READONLY, DATA
  4 .gnu.hash     00000270  00000000004003d8  00000000004003d8  000003d8  2**3
                  CONTENTS, ALLOC, LOAD, READONLY, DATA
  5 .dynsym       00000960  0000000000400648  0000000000400648  00000648  2**3
                  CONTENTS, ALLOC, LOAD, READONLY, DATA
  6 .dynstr       00000474  0000000000400fa8  0000000000400fa8  00000fa8  2**0
                  CONTENTS, ALLOC, LOAD, READONLY, DATA
  7 .gnu.version  000000c8  000000000040141c  000000000040141c  0000141c  2**1
                  CONTENTS, ALLOC, LOAD, READONLY, DATA
  8 .gnu.version_r 00000050  00000000004014e8  00000000004014e8  000014e8  2**3
                  CONTENTS, ALLOC, LOAD, READONLY, DATA
  9 .rela.dyn     00000060  0000000000401538  0000000000401538  00001538  2**3
                  CONTENTS, ALLOC, LOAD, READONLY, DATA
 10 .rela.plt     00000240  0000000000401598  0000000000401598  00001598  2**3
                  CONTENTS, ALLOC, LOAD, READONLY, DATA
 11 .init         0000001b  0000000000402000  0000000000402000  00002000  2**2
                  CONTENTS, ALLOC, LOAD, READONLY, CODE
 12 .plt          00000190  0000000000402020  0000000000402020  00002020  2**4
                  CONTENTS, ALLOC, LOAD, READONLY, CODE
 13 .text         00000d98  00000000004021b0  00000000004021b0  000021b0  2**4
                  CONTENTS, ALLOC, LOAD, READONLY, CODE
 14 .fini         0000000d  0000000000402f48  0000000000402f48  00002f48  2**2
                  CONTENTS, ALLOC, LOAD, READONLY, CODE
 15 .rodata       00000173  0000000000403000  0000000000403000  00003000  2**2
                  CONTENTS, ALLOC, LOAD, READONLY, DATA
 16 .eh_frame_hdr 0000020c  0000000000403174  0000000000403174  00003174  2**2
                  CONTENTS, ALLOC, LOAD, READONLY, DATA
 17 .eh_frame     000006a0  0000000000403380  0000000000403380  00003380  2**3
                  CONTENTS, ALLOC, LOAD, READONLY, DATA
 18 .tbss         00000020  0000000000404d90  0000000000404d90  00003d90  2**3
                  ALLOC, THREAD_LOCAL
 19 .preinit_array 00000008  0000000000404d90  0000000000404d90  00003d90  2**3
                  CONTENTS, ALLOC, LOAD, DATA
 20 .init_array   00000008  0000000000404d98  0000000000404d98  00003d98  2**3
                  CONTENTS, ALLOC, LOAD, DATA
 21 .fini_array   00000008  0000000000404da0  0000000000404da0  00003da0  2**3
                  CONTENTS, ALLOC, LOAD, DATA
 22 .dynamic      00000220  0000000000404da8  0000000000404da8  00003da8  2**3
                  CONTENTS, ALLOC, LOAD, DATA
 23 .got          00000020  0000000000404fc8  0000000000404fc8  00003fc8  2**3
                  CONTENTS, ALLOC, LOAD, DATA
 24 .got.plt      000000d8  0000000000404fe8  0000000000404fe8  00003fe8  2**3
                  CONTENTS, ALLOC, LOAD, DATA
 25 .data         00000050  00000000004050c0  00000000004050c0  000040c0  2**4
                  CONTENTS, ALLOC, LOAD, DATA
 26 .bss          00000078  0000000000405110  0000000000405110  00004110  2**3
                  ALLOC
SYMBOL TABLE:
no symbols


Contents of section .interp:
 400350 2f6c6962 36342f6c 642d6c69 6e75782d  /lib64/ld-linux-
 400360 7838362d 36342e73 6f2e3200           x86-64.so.2.    
Contents of section .note.gnu.property:
 400370 04000000 10000000 05000000 474e5500  ............GNU.
 400380 028000c0 04000000 01000000 00000000  ................
Contents of section .note.gnu.build-id:
 400390 04000000 14000000 03000000 474e5500  ............GNU.
 4003a0 111ba564 a6b656f9 729b6c7e d40fedf6  ...d..V.r.l~....
 4003b0 3f6a6204                             ?jb.            
Contents of section .note.ABI-tag:
 4003b4 04000000 10000000 01000000 474e5500  ............GNU.
 4003c4 00000000 03000000 02000000 00000000  ................
Contents of section .gnu.hash:
 4003d8 43000000 1f000000 08000000 09000000  C...............
 4003e8 4c114022 80116680 60302000 f4104082  L.@"..f.`0 ...@.
 4003f8 0020c805 40002001 40004003 01002008  . ..@. .@.@... .
 400408 00008240 40800020 78056080 85440080  ...@@.. x.`..D..
 400418 28024c14 e8a847a9 c11840a5 41000449  (.L...G...@.A..I
 400428 1f000000 22000000 23000000 24000000  ...."...#...$...
 400438 26000000 28000000 00000000 29000000  &...(.......)...
 400448 00000000 00000000 2a000000 2c000000  ........*...,...
 400458 00000000 00000000 2e000000 2f000000  ............/...
 400468 00000000 00000000 30000000 00000000  ........0.......
 400478 31000000 33000000 35000000 00000000  1...3...5.......
 400488 00000000 36000000 00000000 38000000  ....6.......8...
 400498 00000000 00000000 39000000 3a000000  ........9...:...
 4004a8 3b000000 00000000 3e000000 00000000  ;.......>.......
 4004b8 00000000 00000000 00000000 00000000  ................
 4004c8 40000000 00000000 42000000 45000000  @.......B...E...
 4004d8 00000000 46000000 47000000 49000000  ....F...G...I...
 4004e8 4a000000 4b000000 4c000000 4e000000  J...K...L...N...
 4004f8 00000000 50000000 00000000 51000000  ....P.......Q...
 400508 56000000 58000000 59000000 5a000000  V...X...Y...Z...
 400518 5b000000 5d000000 00000000 00000000  [...]...........
 400528 5e000000 5f000000 61000000 f22d977c  ^..._...a....-.|
 400538 bc8b1215 af2d977c b12d977c b12d977c  .....-.|.-.|.-.|
 400548 e60dac1e b32d977c c6769e33 cb3f2d59  .....-.|.v.3.?-Y
 400558 79d8270f 45c17c0f ac4be3c0 e199d2ba  y.'.E.|..K......
 400568 e6fd6ae2 0904dae2 8dcc7c0f 6fab32c3  ..j.......|.o.2.
 400578 1986e3e1 aa93d18f 1fa39828 a43536ff  ...........(.56.
 400588 fb2c977c a73536ff b6c7e7b5 493f6628  .,.|.56.....I?f(
 400598 3362dbed 972e977c 972e977c 982e977c  3b.....|...|...|
 4005a8 92f0c4e1 275fc7e2 9a2e977c 474fc15a  ....'_.....|GO.Z
 4005b8 8287eb80 274ee8ae 0c3a970b 3c2f9d7b  ....'N...:..</.{
 4005c8 4b2db2e1 07fe6ae2 2758d8b4 6a0943d6  K-....j.'X..j.C.
 4005d8 4d7ef38a 932db2e1 932db2e1 6b7f9a7c  M~...-...-..k..|
 4005e8 4245d5ec cbbb32c3 4c0a2bc9 b94f6da7  BE....2.L.+..Om.
 4005f8 1dea14ff e62d977c be775900 364ee8ae  .....-.|.wY.6N..
 400608 c63536ff 97b9d5d7 c0775900 bbe3927c  .56......wY....|
 400618 47c44d88 65ec7c0f 65ec7c0f e0eafce5  G.M.e.|.e.|.....
 400628 67ec7c0f 67ec7c0f d9ea7c0f d8ea7c0f  g.|.g.|...|...|.
 400638 d971581c b4f0c4e1 62aa3017 1750e8ae  .qX.....b.0..P..
Contents of section .dynsym:
 400648 00000000 00000000 00000000 00000000  ................
 400658 00000000 00000000 2f000000 12000000  ......../.......
 400668 00000000 00000000 00000000 00000000  ................
 400678 ac000000 12000000 00000000 00000000  ................
 400688 00000000 00000000 27010000 12000000  ........'.......
 400698 00000000 00000000 00000000 00000000  ................
 4006a8 0f010000 12000000 00000000 00000000  ................
 4006b8 00000000 00000000 2a000000 12000000  ........*.......
 4006c8 00000000 00000000 00000000 00000000  ................
 4006d8 b5010000 10000000 00000000 00000000  ................
 4006e8 00000000 00000000 f3010000 10000000  ................
 4006f8 00000000 00000000 00000000 00000000  ................
 400708 76000000 12000000 00000000 00000000  v...............
 400718 00000000 00000000 2b020000 10000000  ........+.......
 400728 00000000 00000000 00000000 00000000  ................
 400738 51030000 12000000 00000000 00000000  Q...............
 400748 00000000 00000000 be000000 12000000  ................
 400758 00000000 00000000 00000000 00000000  ................
 400768 08020000 12000000 00000000 00000000  ................
 400778 00000000 00000000 64000000 12000000  ........d.......
 400788 00000000 00000000 00000000 00000000  ................
 400798 2d010000 12000000 00000000 00000000  -...............
 4007a8 00000000 00000000 d8000000 12000000  ................
 4007b8 00000000 00000000 00000000 00000000  ................
 4007c8 bb020000 12000000 00000000 00000000  ................
 4007d8 00000000 00000000 01000000 20000000  ............ ...
 4007e8 00000000 00000000 00000000 00000000  ................
 4007f8 43000000 12000000 00000000 00000000  C...............
 400808 00000000 00000000 3e000000 12000000  ........>.......
 400818 00000000 00000000 00000000 00000000  ................
 400828 4a000000 12000000 00000000 00000000  J...............
 400838 00000000 00000000 fa000000 12000000  ................
 400848 00000000 00000000 00000000 00000000  ................
 400858 a5000000 12000000 00000000 00000000  ................
 400868 00000000 00000000 e0000000 12000000  ................
 400878 00000000 00000000 00000000 00000000  ................
 400888 90000000 12000000 00000000 00000000  ................
 400898 00000000 00000000 34000000 12000000  ........4.......
 4008a8 00000000 00000000 00000000 00000000  ................
 4008b8 20010000 12000000 00000000 00000000   ...............
 4008c8 00000000 00000000 7d000000 12000000  ........}.......
 4008d8 00000000 00000000 00000000 00000000  ................
 4008e8 10000000 12000000 00000000 00000000  ................
 4008f8 00000000 00000000 e6000000 12000000  ................
 400908 00000000 00000000 00000000 00000000  ................
 400918 d1000000 11000000 00000000 00000000  ................
 400928 00000000 00000000 ab010000 12000e00  ................
 400938 202d4000 00000000 06000000 00000000   -@.............
 400948 a5020000 11001a00 e0504000 00000000  .........P@.....
 400958 30000000 00000000 00030000 12000e00  0...............
 400968 502c4000 00000000 0a000000 00000000  P,@.............
 400978 43040000 12000e00 a02c4000 00000000  C........,@.....
 400988 11000000 00000000 05030000 12000e00  ................
 400998 c02c4000 00000000 15000000 00000000  .,@.............
 4009a8 0f020000 12000e00 f02d4000 00000000  .........-@.....
 4009b8 33000000 00000000 3e040000 12000e00  3.......>.......
 4009c8 e02c4000 00000000 19000000 00000000  .,@.............
 4009d8 b9020000 12000e00 602c4000 00000000  ........`,@.....
 4009e8 11000000 00000000 20040000 12000e00  ........ .......
 4009f8 a0224000 00000000 2a020000 00000000  ."@.....*.......
 400a08 88020000 11001a00 d0504000 00000000  .........P@.....
 400a18 08000000 00000000 fa020000 12000e00  ................
 400a28 e02b4000 00000000 05000000 00000000  .+@.............
 400a38 1d030000 11001000 00304000 00000000  .........0@.....
 400a48 04000000 00000000 9f030000 22000e00  ............"...
 400a58 98224000 00000000 05000000 00000000  ."@.............
 400a68 d8010000 12000e00 002d4000 00000000  .........-@.....
 400a78 07000000 00000000 23020000 12000e00  ........#.......
 400a88 c02a4000 00000000 06000000 00000000  .*@.............
 400a98 5f020000 12000e00 802d4000 00000000  _........-@.....
 400aa8 04000000 00000000 8e020000 12000e00  ................
 400ab8 e0294000 00000000 1a000000 00000000  .)@.............
 400ac8 a3010000 12000e00 c02d4000 00000000  .........-@.....
 400ad8 0e000000 00000000 77020000 12000e00  ........w.......
 400ae8 00264000 00000000 cc010000 00000000  .&@.............
 400af8 4f030000 12000e00 d02d4000 00000000  O........-@.....
 400b08 16000000 00000000 d1010000 12000e00  ................
 400b18 202c4000 00000000 05000000 00000000   ,@.............
 400b28 ae030000 12000e00 702d4000 00000000  ........p-@.....
 400b38 04000000 00000000 3c030000 12000e00  ........<.......
 400b48 302c4000 00000000 05000000 00000000  0,@.............
 400b58 e0010000 12000e00 702b4000 00000000  ........p+@.....
 400b68 04000000 00000000 ea010000 12000e00  ................
 400b78 002c4000 00000000 0a000000 00000000  .,@.............
 400b88 e6020000 12000e00 b0214000 00000000  .........!@.....
 400b98 26000000 00000000 48020000 12000e00  &.......H.......
 400ba8 e02a4000 00000000 03000000 00000000  .*@.............
 400bb8 6e030000 12000e00 802b4000 00000000  n........+@.....
 400bc8 04000000 00000000 4d020000 12000e00  ........M.......
 400bd8 902b4000 00000000 04000000 00000000  .+@.............
 400be8 43030000 12000e00 b02a4000 00000000  C........*@.....
 400bf8 03000000 00000000 b3030000 12000e00  ................
 400c08 d02a4000 00000000 06000000 00000000  .*@.............
 400c18 52020000 12000e00 f02b4000 00000000  R........+@.....
 400c28 08000000 00000000 bb030000 12000e00  ................
 400c38 c0294000 00000000 1a000000 00000000  .)@.............
 400c48 86010000 16001300 00000000 00000000  ................
 400c58 08000000 00000000 58030000 12000e00  ........X.......
 400c68 002b4000 00000000 04000000 00000000  .+@.............
 400c78 e2020000 20001a00 c0504000 00000000  .... ....P@.....
 400c88 00000000 00000000 04040000 12000e00  ................
 400c98 302e4000 00000000 75000000 00000000  0.@.....u.......
 400ca8 12040000 12000e00 b02b4000 00000000  .........+@.....
 400cb8 05000000 00000000 57020000 12000e00  ........W.......
 400cc8 102d4000 00000000 07000000 00000000  .-@.............
 400cd8 7c010000 12000e00 602b4000 00000000  |.......`+@.....
 400ce8 04000000 00000000 e0020000 10001a00  ................
 400cf8 c0504000 00000000 00000000 00000000  .P@.............
 400d08 da030000 12000e00 70294000 00000000  ........p)@.....
 400d18 1a000000 00000000 2c030000 12000e00  ........,.......
 400d28 c02b4000 00000000 05000000 00000000  .+@.............
 400d38 74010000 12000e00 d02b4000 00000000  t........+@.....
 400d48 05000000 00000000 b9000000 12000e00  ................
 400d58 b02e4000 00000000 98000000 00000000  ..@.............
 400d68 1c020000 10001a00 10514000 00000000  .........Q@.....
 400d78 00000000 00000000 c9020000 12000e00  ................
 400d88 90294000 00000000 24000000 00000000  .)@.....$.......
 400d98 21040000 22000e00 a0224000 00000000  !..."...."@.....
 400da8 2a020000 00000000 48040000 12000e00  *.......H.......
 400db8 802c4000 00000000 11000000 00000000  .,@.............
 400dc8 ed020000 12000e00 a02b4000 00000000  .........+@.....
 400dd8 05000000 00000000 b0010000 12000e00  ................
 400de8 102b4000 00000000 08000000 00000000  .+@.............
 400df8 19020000 12000e00 902d4000 00000000  .........-@.....
 400e08 08000000 00000000 65020000 12000e00  ........e.......
 400e18 402b4000 00000000 04000000 00000000  @+@.............
 400e28 16030000 12000e00 102c4000 00000000  .........,@.....
 400e38 05000000 00000000 fa030000 12000e00  ................
 400e48 502b4000 00000000 04000000 00000000  P+@.............
 400e58 34030000 12000e00 a02d4000 00000000  4........-@.....
 400e68 02000000 00000000 37030000 10001b00  ........7.......
 400e78 88514000 00000000 00000000 00000000  .Q@.............
 400e88 86030000 12000e00 98224000 00000000  ........."@.....
 400e98 05000000 00000000 c3020000 12000e00  ................
 400ea8 302d4000 00000000 06000000 00000000  0-@.............
 400eb8 d4030000 12000e00 402d4000 00000000  ........@-@.....
 400ec8 07000000 00000000 6f020000 12000e00  ........o.......
 400ed8 402c4000 00000000 08000000 00000000  @,@.............
 400ee8 b3020000 12000e00 502d4000 00000000  ........P-@.....
 400ef8 07000000 00000000 f4030000 12000e00  ................
 400f08 602d4000 00000000 07000000 00000000  `-@.............
 400f18 1a040000 12000e00 202b4000 00000000  ........ +@.....
 400f28 08000000 00000000 f4020000 12000e00  ................
 400f38 302b4000 00000000 08000000 00000000  0+@.............
 400f48 62030000 10001b00 10514000 00000000  b........Q@.....
 400f58 00000000 00000000 0a030000 12000e00  ................
 400f68 a02a4000 00000000 06000000 00000000  .*@.............
 400f78 73030000 12000e00 b02d4000 00000000  s........-@.....
 400f88 02000000 00000000 7c030000 12000e00  ........|.......
 400f98 f02a4000 00000000 04000000 00000000  .*@.............
Contents of section .dynstr:
 400fa8 005f5f67 6d6f6e5f 73746172 745f5f00  .__gmon_start__.
 400fb8 70746872 6561645f 61747472 5f676574  pthread_attr_get
 400fc8 73746163 6b73697a 65007075 74730066  stacksize.puts.f
 400fd8 72656500 67657472 6c696d69 74006765  ree.getrlimit.ge
 400fe8 74730073 7472746f 6c007074 68726561  ts.strtol.pthrea
 400ff8 645f6174 74725f67 65746775 61726473  d_attr_getguards
 401008 697a6500 70746872 6561645f 61747472  ize.pthread_attr
 401018 5f696e69 74006765 74706964 00707468  _init.getpid.pth
 401028 72656164 5f6d7574 65785f6c 6f636b00  read_mutex_lock.
 401038 70746872 6561645f 61747472 5f646573  pthread_attr_des
 401048 74726f79 006d616c 6c6f6300 5f5f6c69  troy.malloc.__li
 401058 62635f73 74617274 5f6d6169 6e007074  bc_start_main.pt
 401068 68726561 645f6b65 795f6372 65617465  hread_key_create
 401078 00737464 65727200 66707269 6e746600  .stderr.fprintf.
 401088 646c7379 6d007074 68726561 645f7365  dlsym.pthread_se
 401098 74737065 63696669 63007074 68726561  tspecific.pthrea
 4010a8 645f6d75 7465785f 756e6c6f 636b005f  d_mutex_unlock._
 4010b8 5f657272 6e6f5f6c 6f636174 696f6e00  _errno_location.
 4010c8 646c7673 796d0061 626f7274 005f5f74  dlvsym.abort.__t
 4010d8 6c735f67 65745f61 64647200 6c69626d  ls_get_addr.libm
 4010e8 2e736f2e 36006c69 62726573 6f6c762e  .so.6.libresolv.
 4010f8 736f2e32 006c6962 632e736f 2e36006c  so.2.libc.so.6.l
 401108 642d6c69 6e75782d 7838362d 36342e73  d-linux-x86-64.s
 401118 6f2e3200 675f696e 63353900 675f7264  o.2.g_inc59.g_rd
 401128 69327261 78005f5f 73616665 73746163  i2rax.__safestac
 401138 6b5f756e 73616665 5f737461 636b5f70  k_unsafe_stack_p
 401148 74720067 5f6c6561 6b310067 5f737400  tr.g_leak1.g_st.
 401158 675f7368 005f5f73 616e6974 697a6572  g_sh.__sanitizer
 401168 5f696e74 65726e61 6c5f6d65 6d637079  _internal_memcpy
 401178 00676164 64787800 675f7375 62787900  .gaddxx.g_subxy.
 401188 675f7264 78327261 7800675f 706f7072  g_rdx2rax.g_popr
 401198 6478005f 5f73616e 6974697a 65725f69  dx.__sanitizer_i
 4011a8 6e746572 6e616c5f 6d656d73 65740076  nternal_memset.v
 4011b8 756c6e5f 6c65616b 00673300 5f656461  uln_leak.g3._eda
 4011c8 74610067 5f797972 6574005f 5f73616e  ta.g_yyret.__san
 4011d8 6974697a 65725f69 6e746572 6e616c5f  itizer_internal_
 4011e8 6d656d6d 6f766500 675f7a31 00675f7a  memmove.g_z1.g_z
 4011f8 3300675f 7a350067 5f737562 79780067  3.g_z5.g_subyx.g
 401208 5f6c6432 00675f72 61783272 64780067  _ld2.g_rax2rdx.g
 401218 61646478 797a005f 5f736166 65737461  addxyz.__safesta
 401228 636b5f69 6e697400 62696e73 68005f5f  ck_init.binsh.__
 401238 6765745f 756e7361 66655f73 7461636b  get_unsafe_stack
 401248 5f707472 00616464 72657373 5f74616b  _ptr.address_tak
 401258 656e0067 5f737434 00675f73 79736361  en.g_st4.g_sysca
 401268 6c6c0067 5f737432 005f5f67 65745f75  ll.g_st2.__get_u
 401278 6e736166 655f7374 61636b5f 746f7000  nsafe_stack_top.
 401288 5f5f6461 74615f73 74617274 00675f69  __data_start.g_i
 401298 6e633800 675f7368 3300675f 696e6300  nc8.g_sh3.g_inc.
 4012a8 675f7331 00675f73 3300675f 61726732  g_s1.g_s3.g_arg2
 4012b8 73657479 79006761 64647979 005f494f  setyy.gaddyy._IO
 4012c8 5f737464 696e5f75 73656400 675f696e  _stdin_used.g_in
 4012d8 63353800 6734005f 656e6400 67616464  c58.g4._end.gadd
 4012e8 78790067 5f617267 32736574 78780067  xy.g_arg2setxx.g
 4012f8 5f707269 6e746600 675f7261 78327264  _printf.g_rax2rd
 401308 69005f5f 6273735f 73746172 7400675f  i.__bss_start.g_
 401318 7a320067 5f696361 6c6c3200 675f7261  z2.g_icall2.g_ra
 401328 78327273 69005f5f 696e7465 72636570  x2rsi.__intercep
 401338 746f725f 7472616d 706f6c69 6e655f70  tor_trampoline_p
 401348 74687265 61645f63 72656174 6500675f  thread_create.g_
 401358 6c640067 5f787872 6574005f 5f676574  ld.g_xxret.__get
 401368 5f756e73 6166655f 73746163 6b5f7374  _unsafe_stack_st
 401378 61727400 675f7374 33005f5f 6765745f  art.g_st3.__get_
 401388 756e7361 66655f73 7461636b 5f626f74  unsafe_stack_bot
 401398 746f6d00 675f7374 3500675f 72736932  tom.g_st5.g_rsi2
 4013a8 72617800 76756c6e 5f6f7665 72666c6f  rax.vuln_overflo
 4013b8 7700675f 696e6333 3200675f 73683200  w.g_inc32.g_sh2.
 4013c8 5f5f5f69 6e746572 63657074 6f725f70  ___interceptor_p
 4013d8 74687265 61645f63 72656174 6500675f  thread_create.g_
 4013e8 73340067 5f733200 675f7379 7363616c  s4.g_s2.g_syscal
 4013f8 6c320047 4c494243 5f322e33 00474c49  l2.GLIBC_2.3.GLI
 401408 42435f32 2e333400 474c4942 435f322e  BC_2.34.GLIBC_2.
 401418 322e3500                             2.5.            
Contents of section .gnu.version:
 40141c 00000200 03000200 02000200 01000100  ................
 40142c 02000100 02000300 02000200 04000200  ................
 40143c 02000100 02000200 03000200 02000300  ................
 40144c 02000200 03000200 03000300 02000100  ................
 40145c 01000100 01000100 01000100 01000100  ................
 40146c 01000100 01000100 01000100 01000100  ................
 40147c 01000100 01000100 01000100 01000100  ................
 40148c 01000100 01000100 01000100 01000100  ................
 40149c 01000100 01000100 01000100 01000100  ................
 4014ac 01000100 01000100 01000100 01000100  ................
 4014bc 01000100 01000100 01000100 01000100  ................
 4014cc 01000100 01000100 01000100 01000100  ................
 4014dc 01000100 01000100                    ........        
Contents of section .gnu.version_r:
 4014e8 01000100 5f010000 10000000 20000000  ...._....... ...
 4014f8 1369690d 00000400 53040000 00000000  .ii.....S.......
 401508 01000200 55010000 10000000 00000000  ....U...........
 401518 b4919606 00000300 5d040000 10000000  ........].......
 401528 751a6909 00000200 68040000 00000000  u.i.....h.......
Contents of section .rela.dyn:
 401538 c84f4000 00000000 12000000 40000000  .O@.........@...
 401548 00000000 00000000 d04f4000 00000000  .........O@.....
 401558 06000000 02000000 00000000 00000000  ................
 401568 d84f4000 00000000 06000000 11000000  .O@.............
 401578 00000000 00000000 e04f4000 00000000  .........O@.....
 401588 06000000 1e000000 00000000 00000000  ................
Contents of section .rela.plt:
 401598 00504000 00000000 07000000 01000000  .P@.............
 4015a8 00000000 00000000 08504000 00000000  .........P@.....
 4015b8 07000000 03000000 00000000 00000000  ................
 4015c8 10504000 00000000 07000000 04000000  .P@.............
 4015d8 00000000 00000000 18504000 00000000  .........P@.....
 4015e8 07000000 05000000 00000000 00000000  ................
 4015f8 20504000 00000000 07000000 08000000   P@.............
 401608 00000000 00000000 28504000 00000000  ........(P@.....
 401618 07000000 0a000000 00000000 00000000  ................
 401628 30504000 00000000 07000000 0b000000  0P@.............
 401638 00000000 00000000 38504000 00000000  ........8P@.....
 401648 07000000 0c000000 00000000 00000000  ................
 401658 40504000 00000000 07000000 0d000000  @P@.............
 401668 00000000 00000000 48504000 00000000  ........HP@.....
 401678 07000000 0e000000 00000000 00000000  ................
 401688 50504000 00000000 07000000 0f000000  PP@.............
 401698 00000000 00000000 58504000 00000000  ........XP@.....
 4016a8 07000000 10000000 00000000 00000000  ................
 4016b8 60504000 00000000 07000000 12000000  `P@.............
 4016c8 00000000 00000000 68504000 00000000  ........hP@.....
 4016d8 07000000 13000000 00000000 00000000  ................
 4016e8 70504000 00000000 07000000 14000000  pP@.............
 4016f8 00000000 00000000 78504000 00000000  ........xP@.....
 401708 07000000 15000000 00000000 00000000  ................
 401718 80504000 00000000 07000000 16000000  .P@.............
 401728 00000000 00000000 88504000 00000000  .........P@.....
 401738 07000000 17000000 00000000 00000000  ................
 401748 90504000 00000000 07000000 18000000  .P@.............
 401758 00000000 00000000 98504000 00000000  .........P@.....
 401768 07000000 19000000 00000000 00000000  ................
 401778 a0504000 00000000 07000000 1a000000  .P@.............
 401788 00000000 00000000 a8504000 00000000  .........P@.....
 401798 07000000 1b000000 00000000 00000000  ................
 4017a8 b0504000 00000000 07000000 1c000000  .P@.............
 4017b8 00000000 00000000 b8504000 00000000  .........P@.....
 4017c8 07000000 1d000000 00000000 00000000  ................
Contents of section .init:
 402000 f30f1efa 4883ec08 488b05c9 2f000048  ....H...H.../..H
 402010 85c07402 ffd04883 c408c3             ..t...H....     
Contents of section .plt:
 402020 ff35ca2f 0000ff25 cc2f0000 0f1f4000  .5./...%./....@.
 402030 ff25ca2f 00006800 000000e9 e0ffffff  .%./..h.........
 402040 ff25c22f 00006801 000000e9 d0ffffff  .%./..h.........
 402050 ff25ba2f 00006802 000000e9 c0ffffff  .%./..h.........
 402060 ff25b22f 00006803 000000e9 b0ffffff  .%./..h.........
 402070 ff25aa2f 00006804 000000e9 a0ffffff  .%./..h.........
 402080 ff25a22f 00006805 000000e9 90ffffff  .%./..h.........
 402090 ff259a2f 00006806 000000e9 80ffffff  .%./..h.........
 4020a0 ff25922f 00006807 000000e9 70ffffff  .%./..h.....p...
 4020b0 ff258a2f 00006808 000000e9 60ffffff  .%./..h.....`...
 4020c0 ff25822f 00006809 000000e9 50ffffff  .%./..h.....P...
 4020d0 ff257a2f 0000680a 000000e9 40ffffff  .%z/..h.....@...
 4020e0 ff25722f 0000680b 000000e9 30ffffff  .%r/..h.....0...
 4020f0 ff256a2f 0000680c 000000e9 20ffffff  .%j/..h..... ...
 402100 ff25622f 0000680d 000000e9 10ffffff  .%b/..h.........
 402110 ff255a2f 0000680e 000000e9 00ffffff  .%Z/..h.........
 402120 ff25522f 0000680f 000000e9 f0feffff  .%R/..h.........
 402130 ff254a2f 00006810 000000e9 e0feffff  .%J/..h.........
 402140 ff25422f 00006811 000000e9 d0feffff  .%B/..h.........
 402150 ff253a2f 00006812 000000e9 c0feffff  .%:/..h.........
 402160 ff25322f 00006813 000000e9 b0feffff  .%2/..h.........
 402170 ff252a2f 00006814 000000e9 a0feffff  .%*/..h.........
 402180 ff25222f 00006815 000000e9 90feffff  .%"/..h.........
 402190 ff251a2f 00006816 000000e9 80feffff  .%./..h.........
 4021a0 ff25122f 00006817 000000e9 70feffff  .%./..h.....p...
Contents of section .text:
 4021b0 f30f1efa 31ed4989 d15e4889 e24883e4  ....1.I..^H..H..
 4021c0 f0505445 31c031c9 48c7c7b0 2e4000ff  .PTE1.1.H....@..
 4021d0 15fb2d00 00f4662e 0f1f8400 00000000  ..-...f.........
 4021e0 f30f1efa c3662e0f 1f840000 00000090  .....f..........
 4021f0 b8105140 00483d10 51400074 13b80000  ..Q@.H=.Q@.t....
 402200 00004885 c07409bf 10514000 ffe06690  ..H..t...Q@...f.
 402210 c366662e 0f1f8400 00000000 0f1f4000  .ff...........@.
 402220 be105140 004881ee 10514000 4889f048  ..Q@.H...Q@.H..H
 402230 c1ee3f48 c1f80348 01c648d1 fe7411b8  ..?H...H..H..t..
 402240 00000000 4885c074 07bf1051 4000ffe0  ....H..t...Q@...
 402250 c366662e 0f1f8400 00000000 0f1f4000  .ff...........@.
 402260 f30f1efa 803da52e 00000075 13554889  .....=.....u.UH.
 402270 e5e87aff ffffc605 932e0000 015dc390  ..z..........]..
 402280 c366662e 0f1f8400 00000000 0f1f4000  .ff...........@.
 402290 f30f1efa eb8a6690 e9030000 000f1f00  ......f.........
 4022a0 f30f1efa 55415741 56415541 54534883  ....UAWAVAUATSH.
 4022b0 ec584989 cf4989d4 4889f349 89fe488d  .XI..I..H..I..H.
 4022c0 3d632e00 00e8b6fe ffff803d 7f2e0000  =c.........=....
 4022d0 00752848 8d3d9c0d 0000488d 35372e00  .u(H.=....H.57..
 4022e0 0048c7c2 98224000 48c7c198 224000e8  .H..."@.H..."@..
 4022f0 0c070000 c605552e 00000148 8d3d262e  ......U....H.=&.
 402300 0000e819 feffff48 c7442410 00000000  .......H.D$.....
 402310 48c74424 18000000 004885db 0f84db00  H.D$.....H......
 402320 0000488d 74241048 89dfe861 feffff48  ..H.t$.H...a...H
 402330 8d742418 4889dfe8 d4fdffff 488b5424  .t$.H.......H.T$
 402340 104885d2 0f84f000 00004883 c20f4883  .H........H...H.
 402350 e2f04889 5424104c 8b6c2418 4c01ea0f  ..H.T$.L.l$.L...
 402360 82050100 0048c704 24000000 00bf0900  .....H..$.......
 402370 000031f6 b9030000 0041b822 00000041  ..1......A."...A
 402380 b9ffffff ff31c0e8 54fdffff 4883f8ff  .....1..T...H...
 402390 0f840401 00004889 c5bf0a00 00004889  ......H.......H.
 4023a0 c64c89ea 31c931c0 e833fdff ff4c01ed  .L..1.1..3...L..
 4023b0 488b4424 10488d0c 284883c1 d84c8964  H.D$.H..(H...L.d
 4023c0 28d84c89 7c28e048 896c28e8 48894428  (.L.|(.H.l(.H.D(
 4023d0 f0488b54 24184889 5428f848 8d15ee00  .H.T$.H.T(.H....
 4023e0 00004c89 f74889de ff152a2d 00004883  ..L..H....*-..H.
 4023f0 c4585b41 5c415d41 5e415f5d c34c8d6c  .X[A\A]A^A_].L.l
 402400 24204c89 efe8a6fc ffff488d 7424104c  $ L.......H.t$.L
 402410 89efe879 fdffff48 8d742418 4c89efe8  ...y...H.t$.L...
 402420 ecfcffff 4c89efe8 24fdffff 488b5424  ....L...$...H.T$
 402430 104885d2 0f8510ff ffff488b 059f2b00  .H........H...+.
 402440 00488b38 488d35b9 0b000048 8d15d40b  .H.8H.5....H....
 402450 00004c8d 05050c00 00b9e300 000031c0  ..L...........1.
 402460 e86bfcff ffe8d6fb ffff488b 056f2b00  .k........H..o+.
 402470 00488b38 488d3589 0b000048 8d15a40b  .H.8H.5....H....
 402480 00004c8d 05c50b00 00b95c00 000031c0  ..L.......\...1.
 402490 e83bfcff ffe8a6fb ffff488b 053f2b00  .;........H..?+.
 4024a0 00488b38 488d3559 0b000048 8d15740b  .H.8H.5Y...H..t.
 4024b0 00004c8d 05aa0b00 00b95f00 000031c0  ..L......._...1.
 4024c0 e80bfcff ffe876fb ffff660f 1f440000  ......v...f..D..
 4024d0 f30f1efa 55415741 56415541 5453504c  ....UAWAVAUATSPL
 4024e0 8b77184d 85f60f88 80000000 4c8b7f20  .w.M........L.. 
 4024f0 4d85ff0f 88a30000 004c8b67 104f8d2c  M........L.g.O.,
 402500 3441f6c5 0f0f85c1 00000048 8b2f488b  4A.........H./H.
 402510 5f086448 8b042500 00000048 0305a62a  _.dH..%....H...*
 402520 00004c89 28666666 64488b04 25000000  ..L.(fffdH..%...
 402530 004c89a0 e8ffffff 4c89b0f0 ffffff4c  .L......L......L
 402540 89b8f8ff ffff8b3d d42b0000 be010000  .......=.+......
 402550 00e84afc ffff4889 df4889e8 4883c408  ..J...H..H..H...
 402560 5b415c41 5d415e41 5f5dffe0 488b056d  [A\A]A^A_]..H..m
 402570 2a000048 8b38488d 35870a00 00488d15  *..H.8H.5....H..
 402580 a20a0000 4c8d05fa 0a0000b9 65000000  ....L.......e...
 402590 31c0e839 fbffffe8 a4faffff 488b053d  1..9........H..=
 4025a0 2a000048 8b38488d 35570a00 00488d15  *..H.8H.5W...H..
 4025b0 720a0000 4c8d05f0 0a0000b9 66000000  r...L.......f...
 4025c0 31c0e809 fbffffe8 74faffff 488b050d  1.......t...H...
 4025d0 2a000048 8b38488d 35270a00 00488d15  *..H.8H.5'...H..
 4025e0 420a0000 4c8d05e7 0a0000b9 68000000  B...L.......h...
 4025f0 31c0e8d9 faffffe8 44faffff 0f1f4000  1.......D.....@.
 402600 f30f1efa 41574156 534883ec 20488d74  ....AWAVSH.. H.t
 402610 2410bf03 000000e8 44fbffff 4c8b7424  $.......D...L.t$
 402620 104983fe ffb90000 80024c0f 44f185c0  .I........L.D...
 402630 4c0f45f1 4981fe00 f0ffff0f 83cb0000  L.E.I...........
 402640 00498d96 00100000 48c70424 00000000  .I......H..$....
 402650 bf090000 0031f6b9 03000000 41b82200  .....1......A.".
 402660 000041b9 ffffffff 31c0e871 faffff48  ..A.....1..q...H
 402670 83f8ff0f 84c30000 004889c3 bf0a0000  .........H......
 402680 00ba0010 00004889 c631c931 c0e84efa  ......H..1.1..N.
 402690 ffff4d85 f60f88d1 0000004e 8d3c3349  ..M........N.<3I
 4026a0 81c70010 000041f6 c70f0f85 ec000000  ......A.........
 4026b0 4881c300 10000064 488b0425 00000000  H......dH..%....
 4026c0 48030501 2900004c 89386666 6664488b  H...)..L.8fffdH.
 4026d0 04250000 00004889 98e8ffff ff4c89b0  .%....H......L..
 4026e0 f0ffffff 48c780f8 ffffff00 10000048  ....H..........H
 4026f0 8d3d2a2a 0000488d 35d30000 00e88ef9  .=**..H.5.......
 402700 ffff4883 c4205b41 5e415fc3 488b05cd  ..H.. [A^A_.H...
 402710 28000048 8b38488d 35e70800 00488d15  (..H.8H.5....H..
 402720 02090000 4c8d0523 090000b9 5c000000  ....L..#....\...
 402730 31c0e899 f9ffffe8 04f9ffff 488b059d  1...........H...
 402740 28000048 8b38488d 35b70800 00488d15  (..H.8H.5....H..
 402750 d2080000 4c8d0508 090000b9 5f000000  ....L......._...
 402760 31c0e869 f9ffffe8 d4f8ffff 488b056d  1..i........H..m
 402770 28000048 8b38488d 35870800 00488d15  (..H.8H.5....H..
 402780 a2080000 4c8d05fa 080000b9 65000000  ....L.......e...
 402790 31c0e839 f9ffffe8 a4f8ffff 488b053d  1..9........H..=
 4027a0 28000048 8b38488d 35570800 00488d15  (..H.8H.5W...H..
 4027b0 72080000 4c8d0517 090000b9 68000000  r...L.......h...
 4027c0 31c0e809 f9ffffe8 74f8ffff 0f1f4000  1.......t.....@.
 4027d0 f30f1efa 55415741 56415541 54535066  ....UAWAVAUATSPf
 4027e0 66666448 8b042500 00000048 83b8e8ff  ffdH..%....H....
 4027f0 ffff000f 84470100 004889c3 4c8da0e8  .....G...H..L...
 402800 ffffff8b 3d172900 0031f6e8 90f9ffff  ....=.)..1......
 402810 4c8d3541 2900004c 89f7e861 f9ffff4c  L.5A)..L...a...L
 402820 8b3d5a29 00004c89 3c2448c7 054b2900  .=Z)..L.<$H..K).
 402830 00000000 004c89f7 e8e3f8ff ffe82ef8  .....L..........
 402840 ffff89c5 bfba0000 0031c0e8 90f8ffff  .........1......
 402850 4989c649 89e5eb2f 0f1f8400 00000000  I..I.../........
 402860 498b7708 498b5710 bf0b0000 0031c0e8  I.w.I.W......1..
 402870 6cf8ffff 498b0749 8945004c 89ffe8ad  l...I..I.E.L....
 402880 f7ffff4d 8b7d004d 85ff743c 41396f18  ...M.}.M..t<A9o.
 402890 75ce498b 5720bfea 00000089 ee31c931  u.I.W .......1.1
 4028a0 c0e83af8 ffff83f8 ff7515e8 a0f7ffff  ..:......u......
 4028b0 83380374 ab4d89fd 4d8b3feb ca0f1f00  .8.t.M..M.?.....
 4028c0 4d89fd4d 8b3febbf bf280000 00e85ef8  M..M.?...(....^.
 4028d0 ffff4989 c7498b0c 24488b93 f8ffffff  ..I..I..$H......
 4028e0 4829d148 89480848 0393f0ff ffff4889  H).H.H.H......H.
 4028f0 50108968 184c8970 20488d1d 58280000  P..h.L.p H..X(..
 402900 4889dfe8 78f8ffff 488b0571 28000049  H...x...H..q(..I
 402910 89450048 8b042449 89074c89 3d5f2800  .E.H..$I..L.=_(.
 402920 004889df e8f7f7ff ff49c704 24000000  .H.......I..$...
 402930 004883c4 085b415c 415d415e 415f5dc3  .H...[A\A]A^A_].
 402940 488b0599 26000048 8b38488d 35b30600  H...&..H.8H.5...
 402950 00488d15 ce060000 4c8d05a2 070000b9  .H......L.......
 402960 a1000000 31c0e865 f7ffffe8 d0f6ffff  ....1..e........
 402970 f30f1efa 50666666 64488b04 25000000  ....PfffdH..%...
 402980 00488b80 e8ffffff 59c3660f 1f440000  .H......Y.f..D..
 402990 f30f1efa 50666666 64488b04 25000000  ....PfffdH..%...
 4029a0 00488b88 e8ffffff 480388f0 ffffff48  .H......H......H
 4029b0 89c859c3 662e0f1f 84000000 00006690  ..Y.f.........f.
 4029c0 f30f1efa 50666666 64488b04 25000000  ....PfffdH..%...
 4029d0 00488b80 e8ffffff 59c3660f 1f440000  .H......Y.f..D..
 4029e0 f30f1efa 5064488b 04250000 00004803  ....PdH..%....H.
 4029f0 05d32500 00488b00 59c36690 0f1f4000  ..%..H..Y.f...@.
 402a00 f30f1efa 41574156 41554154 534889cb  ....AWAVAUATSH..
 402a10 4989d649 89f74989 fc48c7c7 ffffffff  I..I..I..H......
 402a20 4c89e6e8 18f7ffff 4885c075 144531ed  L.......H..u.E1.
 402a30 31ff4c89 e6e806f7 ffff4839 d8490f44  1.L.......H9.I.D
 402a40 c5498907 4885c00f 95c14939 de0f94c0  .I..H.....I9....
 402a50 20c85b41 5c415d41 5e415fc3 0f1f4000   .[A\A]A^A_...@.
 402a60 f30f1efa 41574156 534c89c3 4989ce49  ....AWAVSL..I..I
 402a70 89d74889 f24889fe 48c7c7ff ffffffe8  ..H..H..H.......
 402a80 ecf6ffff 49890748 85c00f95 c14939de  ....I..H.....I9.
 402a90 0f94c020 c85b415e 415fc30f 1f440000  ... .[A^A_...D..
 402aa0 b8010000 00c3662e 0f1f8400 00000000  ......f.........
 402ab0 31c0c366 6666662e 0f1f8400 00000000  1..ffff.........
 402ac0 b8340000 00c3662e 0f1f8400 00000000  .4....f.........
 402ad0 b8350000 00c3662e 0f1f8400 00000000  .5....f.........
 402ae0 31c0c366 6666662e 0f1f8400 00000000  1..ffff.........
 402af0 4889c6c3 6666662e 0f1f8400 00000000  H...fff.........
 402b00 4889c7c3 6666662e 0f1f8400 00000000  H...fff.........
 402b10 488b05b9 250000c3 0f1f8400 00000000  H...%...........
 402b20 488b05a9 250000c3 0f1f8400 00000000  H...%...........
 402b30 488b0599 250000c3 0f1f8400 00000000  H...%...........
 402b40 4889c2c3 6666662e 0f1f8400 00000000  H...fff.........
 402b50 4889f0c3 6666662e 0f1f8400 00000000  H...fff.........
 402b60 4889f8c3 6666662e 0f1f8400 00000000  H...fff.........
 402b70 4889d0c3 6666662e 0f1f8400 00000000  H...fff.........
 402b80 4831f6c3 6666662e 0f1f8400 00000000  H1..fff.........
 402b90 4831c0c3 6666662e 0f1f8400 00000000  H1..fff.........
 402ba0 4883c008 c366662e 0f1f8400 00000000  H....ff.........
 402bb0 4883c020 c366662e 0f1f8400 00000000  H.. .ff.........
 402bc0 4883c03a c366662e 0f1f8400 00000000  H..:.ff.........
 402bd0 4883c03b c366662e 0f1f8400 00000000  H..;.ff.........
 402be0 4883c001 c366662e 0f1f8400 00000000  H....ff.........
 402bf0 48c7c200 000000c3 0f1f8400 00000000  H...............
 402c00 48c7c200 00000052 5ac3660f 1f440000  H......RZ.f..D..
 402c10 488d4702 c366662e 0f1f8400 00000000  H.G..ff.........
 402c20 488d4701 c366662e 0f1f8400 00000000  H.G..ff.........
 402c30 488d0437 c366662e 0f1f8400 00000000  H..7.ff.........
 402c40 488d0437 4801d0c3 0f1f8400 00000000  H..7H...........
 402c50 488b3631 c0e986f4 ffff660f 1f440000  H.61......f..D..
 402c60 4889f848 31f64831 f64831d2 0f0531c0  H..H1.H1.H1...1.
 402c70 c3666666 6666662e 0f1f8400 00000000  .ffffff.........
 402c80 4889f848 89f74831 f64831d2 0f0531c0  H..H..H1.H1...1.
 402c90 c3666666 6666662e 0f1f8400 00000000  .ffffff.........
 402ca0 488b0648 8b560848 89c631c0 e92ff4ff  H..H.V.H..1../..
 402cb0 ff666666 6666662e 0f1f8400 00000000  .ffffff.........
 402cc0 488b0648 8b560848 8b4e1048 89c631c0  H..H.V.H.N.H..1.
 402cd0 e90bf4ff ff66662e 0f1f8400 00000000  .....ff.........
 402ce0 488b0648 8b560848 8b4e184c 8b462048  H..H.V.H.N.L.F H
 402cf0 89c631c0 e9e7f3ff ff0f1f80 00000000  ..1.............
 402d00 4889f848 29f0c366 0f1f8400 00000000  H..H)..f........
 402d10 4889f048 29f8c366 0f1f8400 00000000  H..H)..f........
 402d20 48893731 c0c3662e 0f1f8400 00000000  H.71..f.........
 402d30 48893e31 c0c3662e 0f1f8400 00000000  H.>1..f.........
 402d40 4889f848 8936c366 0f1f8400 00000000  H..H.6.f........
 402d50 4889f048 893fc366 0f1f8400 00000000  H..H.?.f........
 402d60 4889f048 893fc366 0f1f8400 00000000  H..H.?.f........
 402d70 488b07c3 6666662e 0f1f8400 00000000  H...fff.........
 402d80 488b06c3 6666662e 0f1f8400 00000000  H...fff.........
 402d90 4889f848 89f7ffe0 0f1f8400 00000000  H..H............
 402da0 ffe66666 6666662e 0f1f8400 00000000  ..fffff.........
 402db0 ffe76666 6666662e 0f1f8400 00000000  ..fffff.........
 402dc0 488d0549 feffff48 2500f0ff ffc36690  H..I...H%.....f.
 402dd0 504889fe 488d3d4c 03000031 c0e89ef2  PH..H.=L...1....
 402de0 ffff31c0 59c3662e 0f1f8400 00000000  ..1.Y.f.........
 402df0 41565350 4889fb4c 8d352c03 0000488d  AVSPH..L.5,...H.
 402e00 35ebffff ff4c89f7 31c0e871 f2ffff4c  5....L..1..q...L
 402e10 89f74889 de31c048 83c4085b 415ee95d  ..H..1.H...[A^.]
 402e20 f2ffff66 6666662e 0f1f8400 00000000  ...ffff.........
 402e30 41574156 534c8b35 8c210000 644d8b3e  AWAVSL.5.!..dM.>
 402e40 498d87f0 feffff64 49890648 8d3d0703  I......dI..H.=..
 402e50 0000e809 f2ffff49 8d9ff8fe ffff4889  .......I......H.
 402e60 dfe89af2 ffff4889 df31f6ba 0a000000  ......H..1......
 402e70 e87bf2ff ff4889c3 488d3de4 020000e8  .{...H..H.=.....
 402e80 dcf1ffff 4863c348 c1e00449 8d3c0748  ....Hc.H...I.<.H
 402e90 81c700ff ffffe865 f2ffff64 4d893e5b  .......e...dM.>[
 402ea0 415e415f c366662e 0f1f8400 00000000  A^A_.ff.........
 402eb0 41574156 41545350 4c8b3509 21000064  AWAVATSPL.5.!..d
 402ec0 4d8b3e49 8d9f00fc ffff6449 891e4531  M.>I......dI..E1
 402ed0 e4ba0004 00004889 df31f6e8 c0f1ffff  ......H..1......
 402ee0 4889dfe8 08ffffff e843ffff ff31ff31  H........C...1.1
 402ef0 dbeb1966 6666662e 0f1f8400 00000000  ...ffff.........
 402f00 49ffc449 81fc8000 0000741e 4b83bce7  I..I......t.K...
 402f10 00fcffff 0074e948 89de43ff 94e700fc  .....t.H..C.....
 402f20 ffff4889 df4889c3 ebd6488d 3dfd0100  ..H..H....H.=...
 402f30 00e89afe ffff644d 893e31c0 4883c408  ......dM.>1.H...
 402f40 5b415c41 5e415fc3                    [A\A^A_.        
Contents of section .fini:
 402f48 f30f1efa 4883ec08 4883c408 c3        ....H...H....   
Contents of section .rodata:
 403000 01000200 73616665 73746163 6b204348  ....safestack CH
 403010 45434b20 6661696c 65643a20 25733a25  ECK failed: %s:%
 403020 64202573 0a00636f 6d70696c 65722d72  d %s..compiler-r
 403030 742f6c69 622f7361 66657374 61636b2f  t/lib/safestack/
 403040 73616665 73746163 6b2e6370 70007369  safestack.cpp.si
 403050 7a65202b 20677561 7264203e 3d207369  ze + guard >= si
 403060 7a65004d 41505f46 41494c45 4420213d  ze.MAP_FAILED !=
 403070 20616464 72007074 68726561 645f6372   addr.pthread_cr
 403080 65617465 00286368 6172202a 29737461  eate.(char *)sta
 403090 7274202b 2073697a 65203e3d 20286368  rt + size >= (ch
 4030a0 6172202a 29737461 72740028 63686172  ar *)start.(char
 4030b0 202a2973 74617274 202b2067 75617264   *)start + guard
 4030c0 203e3d20 28636861 72202a29 73746172   >= (char *)star
 4030d0 74002828 2873697a 655f7429 73746163  t.(((size_t)stac
 4030e0 6b5f7074 72292026 20286b53 7461636b  k_ptr) & (kStack
 4030f0 416c6967 6e202d20 31292920 3d3d2030  Align - 1)) == 0
 403100 00756e73 6166655f 73746163 6b5f7374  .unsafe_stack_st
 403110 61727420 213d206e 756c6c70 7472002f  art != nullptr./
 403120 62696e2f 73680025 73002570 0a005b52  bin/sh.%s.%p..[R
 403130 4553554c 545d204e 6f742065 78706c6f  ESULT] Not explo
 403140 69746564 203a2820 45786974 696e6720  ited :( Exiting 
 403150 73616665 6c792e0a 00456e74 65722069  safely...Enter i
 403160 643a0045 6e746572 20706173 73776f72  d:.Enter passwor
 403170 643a00                               d:.             
Contents of section .eh_frame_hdr:
 403174 011b033b 08020000 40000000 aceeffff  ...;....@.......
 403184 4c020000 3cf0ffff 24020000 6cf0ffff  L...<...$...l...
 403194 38020000 24f1ffff 74020000 2cf1ffff  8...$...t...,...
 4031a4 88020000 5cf3ffff d8020000 8cf4ffff  ....\...........
 4031b4 24030000 5cf6ffff 58030000 fcf7ffff  $...\...X.......
 4031c4 a4030000 1cf8ffff bc030000 4cf8ffff  ............L...
 4031d4 d4030000 6cf8ffff ec030000 8cf8ffff  ....l...........
 4031e4 04040000 ecf8ffff 40040000 2cf9ffff  ........@...,...
 4031f4 6c040000 3cf9ffff 80040000 4cf9ffff  l...<.......L...
 403204 94040000 5cf9ffff a8040000 6cf9ffff  ....\.......l...
 403214 bc040000 7cf9ffff d0040000 8cf9ffff  ....|...........
 403224 e4040000 9cf9ffff f8040000 acf9ffff  ................
 403234 0c050000 bcf9ffff 20050000 ccf9ffff  ........ .......
 403244 34050000 dcf9ffff 48050000 ecf9ffff  4.......H.......
 403254 5c050000 fcf9ffff 70050000 0cfaffff  \.......p.......
 403264 84050000 1cfaffff 98050000 2cfaffff  ............,...
 403274 ac050000 3cfaffff c0050000 4cfaffff  ....<.......L...
 403284 d4050000 5cfaffff e8050000 6cfaffff  ....\.......l...
 403294 fc050000 7cfaffff 10060000 8cfaffff  ....|...........
 4032a4 24060000 9cfaffff 38060000 acfaffff  $.......8.......
 4032b4 4c060000 bcfaffff 60060000 ccfaffff  L.......`.......
 4032c4 74060000 dcfaffff 88060000 ecfaffff  t...............
 4032d4 9c060000 0cfbffff b0060000 2cfbffff  ............,...
 4032e4 c4060000 4cfbffff d8060000 6cfbffff  ....L.......l...
 4032f4 ec060000 8cfbffff 00070000 9cfbffff  ................
 403304 14070000 acfbffff 28070000 bcfbffff  ........(.......
 403314 3c070000 ccfbffff 50070000 dcfbffff  <.......P.......
 403324 64070000 ecfbffff 78070000 fcfbffff  d.......x.......
 403334 8c070000 0cfcffff a0070000 1cfcffff  ................
 403344 b4070000 2cfcffff c8070000 3cfcffff  ....,.......<...
 403354 dc070000 4cfcffff f0070000 5cfcffff  ....L.......\...
 403364 04080000 7cfcffff 1c080000 bcfcffff  ....|...........
 403374 44080000 3cfdffff 70080000           D...<...p...    
Contents of section .eh_frame:
 403380 14000000 00000000 017a5200 01781001  .........zR..x..
 403390 1b0c0708 90010000 10000000 1c000000  ................
 4033a0 10eeffff 26000000 00440710 10000000  ....&....D......
 4033b0 30000000 2ceeffff 05000000 00000000  0...,...........
 4033c0 24000000 44000000 58ecffff 90010000  $...D...X.......
 4033d0 000e1046 0e184a0f 0b770880 003f1a3b  ...F..J..w...?.;
 4033e0 2a332422 00000000 10000000 6c000000  *3$"........l...
 4033f0 a8eeffff 05000000 00000000 4c000000  ............L...
 403400 80000000 9ceeffff 2a020000 00450e10  ........*....E..
 403410 420e1842 0e20420e 28420e30 410e3844  B..B. B.(B.0A.8D
 403420 0e900183 078c068d 058e048f 03860203  ................
 403430 40010e38 410e3042 0e28420e 20420e18  @..8A.0B.(B. B..
 403440 420e1041 0e08410e 90010000 48000000  B..A..A.....H...
 403450 d0000000 7cf0ffff 2c010000 00450e10  ....|...,....E..
 403460 420e1842 0e20420e 28420e30 410e3841  B..B. B.(B.0A.8A
 403470 0e408307 8c068d05 8e048f03 86020281  .@..............
 403480 0e38410e 30420e28 420e2042 0e18420e  .8A.0B.(B. B..B.
 403490 10410e08 420e4000 30000000 1c010000  .A..B.@.0.......
 4034a0 60f1ffff cc010000 00460e10 420e1841  `........F..B..A
 4034b0 0e20440e 4083048e 038f0202 f90e2041  . D.@......... A
 4034c0 0e18420e 10420e08 410e4000 48000000  ..B..B..A.@.H...
 4034d0 50010000 fcf2ffff a0010000 00450e10  P............E..
 4034e0 420e1842 0e20420e 28420e30 410e3841  B..B. B.(B.0A.8A
 4034f0 0e408307 8c068d05 8e048f03 86020356  .@.............V
 403500 010e3841 0e30420e 28420e20 420e1842  ..8A.0B.(B. B..B
 403510 0e10410e 08410e40 14000000 9c010000  ..A..A.@........
 403520 50f4ffff 1a000000 00450e10 540e0800  P........E..T...
 403530 14000000 b4010000 58f4ffff 24000000  ........X...$...
 403540 00450e10 5e0e0800 14000000 cc010000  .E..^...........
 403550 70f4ffff 1a000000 00450e10 540e0800  p........E..T...
 403560 14000000 e4010000 78f4ffff 1a000000  ........x.......
 403570 00450e10 540e0800 38000000 fc010000  .E..T...8.......
 403580 80f4ffff 5c000000 00460e10 420e1842  ....\....F..B..B
 403590 0e20420e 28410e30 83068c05 8d048e03  . B.(A.0........
 4035a0 8f020246 0e28420e 20420e18 420e1042  ...F.(B. B..B..B
 4035b0 0e080000 28000000 38020000 a4f4ffff  ....(...8.......
 4035c0 3b000000 00460e10 420e1841 0e208304  ;....F..B..A. ..
 4035d0 8e038f02 6d0e1842 0e10420e 08000000  ....m..B..B.....
 4035e0 10000000 64020000 b8f4ffff 06000000  ....d...........
 4035f0 00000000 10000000 78020000 b4f4ffff  ........x.......
 403600 03000000 00000000 10000000 8c020000  ................
 403610 b0f4ffff 06000000 00000000 10000000  ................
 403620 a0020000 acf4ffff 06000000 00000000  ................
 403630 10000000 b4020000 a8f4ffff 03000000  ................
 403640 00000000 10000000 c8020000 a4f4ffff  ................
 403650 04000000 00000000 10000000 dc020000  ................
 403660 a0f4ffff 04000000 00000000 10000000  ................
 403670 f0020000 9cf4ffff 08000000 00000000  ................
 403680 10000000 04030000 98f4ffff 08000000  ................
 403690 00000000 10000000 18030000 94f4ffff  ................
 4036a0 08000000 00000000 10000000 2c030000  ............,...
 4036b0 90f4ffff 04000000 00000000 10000000  ................
 4036c0 40030000 8cf4ffff 04000000 00000000  @...............
 4036d0 10000000 54030000 88f4ffff 04000000  ....T...........
 4036e0 00000000 10000000 68030000 84f4ffff  ........h.......
 4036f0 04000000 00000000 10000000 7c030000  ............|...
 403700 80f4ffff 04000000 00000000 10000000  ................
 403710 90030000 7cf4ffff 04000000 00000000  ....|...........
 403720 10000000 a4030000 78f4ffff 05000000  ........x.......
 403730 00000000 10000000 b8030000 74f4ffff  ............t...
 403740 05000000 00000000 10000000 cc030000  ................
 403750 70f4ffff 05000000 00000000 10000000  p...............
 403760 e0030000 6cf4ffff 05000000 00000000  ....l...........
 403770 10000000 f4030000 68f4ffff 05000000  ........h.......
 403780 00000000 10000000 08040000 64f4ffff  ............d...
 403790 08000000 00000000 10000000 1c040000  ................
 4037a0 60f4ffff 0a000000 00000000 10000000  `...............
 4037b0 30040000 5cf4ffff 05000000 00000000  0...\...........
 4037c0 10000000 44040000 58f4ffff 05000000  ....D...X.......
 4037d0 00000000 10000000 58040000 54f4ffff  ........X...T...
 4037e0 05000000 00000000 10000000 6c040000  ............l...
 4037f0 50f4ffff 08000000 00000000 10000000  P...............
 403800 80040000 4cf4ffff 0a000000 00000000  ....L...........
 403810 10000000 94040000 48f4ffff 11000000  ........H.......
 403820 00000000 10000000 a8040000 54f4ffff  ............T...
 403830 11000000 00000000 10000000 bc040000  ................
 403840 60f4ffff 11000000 00000000 10000000  `...............
 403850 d0040000 6cf4ffff 15000000 00000000  ....l...........
 403860 10000000 e4040000 78f4ffff 19000000  ........x.......
 403870 00000000 10000000 f8040000 84f4ffff  ................
 403880 07000000 00000000 10000000 0c050000  ................
 403890 80f4ffff 07000000 00000000 10000000  ................
 4038a0 20050000 7cf4ffff 06000000 00000000   ...|...........
 4038b0 10000000 34050000 78f4ffff 06000000  ....4...x.......
 4038c0 00000000 10000000 48050000 74f4ffff  ........H...t...
 4038d0 07000000 00000000 10000000 5c050000  ............\...
 4038e0 70f4ffff 07000000 00000000 10000000  p...............
 4038f0 70050000 6cf4ffff 07000000 00000000  p...l...........
 403900 10000000 84050000 68f4ffff 04000000  ........h.......
 403910 00000000 10000000 98050000 64f4ffff  ............d...
 403920 04000000 00000000 10000000 ac050000  ................
 403930 60f4ffff 08000000 00000000 10000000  `...............
 403940 c0050000 5cf4ffff 02000000 00000000  ....\...........
 403950 10000000 d4050000 58f4ffff 02000000  ........X.......
 403960 00000000 10000000 e8050000 54f4ffff  ............T...
 403970 0e000000 00000000 14000000 fc050000  ................
 403980 50f4ffff 16000000 00410e10 540e0800  P........A..T...
 403990 24000000 14060000 58f4ffff 33000000  $.......X...3...
 4039a0 00420e10 410e1841 0e208303 8e02670e  .B..A..A. ....g.
 4039b0 18410e10 420e0800 28000000 3c060000  .A..B...(...<...
 4039c0 70f4ffff 75000000 00420e10 420e1841  p...u....B..B..A
 4039d0 0e208304 8e038f02 026b0e18 420e1042  . .......k..B..B
 4039e0 0e080000 34000000 68060000 c4f4ffff  ....4...h.......
 4039f0 98000000 00420e10 420e1842 0e20410e  .....B..B..B. A.
 403a00 28410e30 83058c04 8e038f02 02880e28  (A.0...........(
 403a10 410e2042 0e18420e 10420e08 00000000  A. B..B..B......
Contents of section .preinit_array:
 404d90 00264000 00000000                    .&@.....        
Contents of section .init_array:
 404d98 90224000 00000000                    ."@.....        
Contents of section .fini_array:
 404da0 60224000 00000000                    `"@.....        
Contents of section .dynamic:
 404da8 01000000 00000000 3c010000 00000000  ........<.......
 404db8 01000000 00000000 46010000 00000000  ........F.......
 404dc8 01000000 00000000 55010000 00000000  ........U.......
 404dd8 01000000 00000000 5f010000 00000000  ........_.......
 404de8 0c000000 00000000 00204000 00000000  ......... @.....
 404df8 0d000000 00000000 482f4000 00000000  ........H/@.....
 404e08 20000000 00000000 904d4000 00000000   ........M@.....
 404e18 21000000 00000000 08000000 00000000  !...............
 404e28 19000000 00000000 984d4000 00000000  .........M@.....
 404e38 1b000000 00000000 08000000 00000000  ................
 404e48 1a000000 00000000 a04d4000 00000000  .........M@.....
 404e58 1c000000 00000000 08000000 00000000  ................
 404e68 f5feff6f 00000000 d8034000 00000000  ...o......@.....
 404e78 05000000 00000000 a80f4000 00000000  ..........@.....
 404e88 06000000 00000000 48064000 00000000  ........H.@.....
 404e98 0a000000 00000000 74040000 00000000  ........t.......
 404ea8 0b000000 00000000 18000000 00000000  ................
 404eb8 15000000 00000000 00000000 00000000  ................
 404ec8 03000000 00000000 e84f4000 00000000  .........O@.....
 404ed8 02000000 00000000 40020000 00000000  ........@.......
 404ee8 14000000 00000000 07000000 00000000  ................
 404ef8 17000000 00000000 98154000 00000000  ..........@.....
 404f08 07000000 00000000 38154000 00000000  ........8.@.....
 404f18 08000000 00000000 60000000 00000000  ........`.......
 404f28 09000000 00000000 18000000 00000000  ................
 404f38 feffff6f 00000000 e8144000 00000000  ...o......@.....
 404f48 ffffff6f 00000000 02000000 00000000  ...o............
 404f58 f0ffff6f 00000000 1c144000 00000000  ...o......@.....
 404f68 00000000 00000000 00000000 00000000  ................
 404f78 00000000 00000000 00000000 00000000  ................
 404f88 00000000 00000000 00000000 00000000  ................
 404f98 00000000 00000000 00000000 00000000  ................
 404fa8 00000000 00000000 00000000 00000000  ................
 404fb8 00000000 00000000 00000000 00000000  ................
Contents of section .got:
 404fc8 00000000 00000000 00000000 00000000  ................
 404fd8 00000000 00000000 00000000 00000000  ................
Contents of section .got.plt:
 404fe8 a84d4000 00000000 00000000 00000000  .M@.............
 404ff8 00000000 00000000 36204000 00000000  ........6 @.....
 405008 46204000 00000000 56204000 00000000  F @.....V @.....
 405018 66204000 00000000 76204000 00000000  f @.....v @.....
 405028 86204000 00000000 96204000 00000000  . @...... @.....
 405038 a6204000 00000000 b6204000 00000000  . @...... @.....
 405048 c6204000 00000000 d6204000 00000000  . @...... @.....
 405058 e6204000 00000000 f6204000 00000000  . @...... @.....
 405068 06214000 00000000 16214000 00000000  .!@......!@.....
 405078 26214000 00000000 36214000 00000000  &!@.....6!@.....
 405088 46214000 00000000 56214000 00000000  F!@.....V!@.....
 405098 66214000 00000000 76214000 00000000  f!@.....v!@.....
 4050a8 86214000 00000000 96214000 00000000  .!@......!@.....
 4050b8 a6214000 00000000                    .!@.....        
Contents of section .data:
 4050c0 00000000 00000000 00000000 00000000  ................
 4050d0 1f314000 00000000 00000000 00000000  .1@.............
 4050e0 d02a4000 00000000 802c4000 00000000  .*@......,@.....
 4050f0 c02d4000 00000000 102b4000 00000000  .-@......+@.....
 405100 202b4000 00000000 302b4000 00000000   +@.....0+@.....

Disassembly of section .init:

0000000000402000 <.init>:
  402000:	f3 0f 1e fa          	endbr64
  402004:	48 83 ec 08          	sub    rsp,0x8
  402008:	48 8b 05 c9 2f 00 00 	mov    rax,QWORD PTR [rip+0x2fc9]        # 404fd8 <__gmon_start__@Base>
  40200f:	48 85 c0             	test   rax,rax
  402012:	74 02                	je     402016 <__safestack_unsafe_stack_ptr@@Base+0x402016>
  402014:	ff d0                	call   rax
  402016:	48 83 c4 08          	add    rsp,0x8
  40201a:	c3                   	ret

Disassembly of section .plt:

0000000000402020 <free@plt-0x10>:
  402020:	ff 35 ca 2f 00 00    	push   QWORD PTR [rip+0x2fca]        # 404ff0 <_IO_stdin_used@@Base+0x1ff0>
  402026:	ff 25 cc 2f 00 00    	jmp    QWORD PTR [rip+0x2fcc]        # 404ff8 <_IO_stdin_used@@Base+0x1ff8>
  40202c:	0f 1f 40 00          	nop    DWORD PTR [rax+0x0]

0000000000402030 <free@plt>:
  402030:	ff 25 ca 2f 00 00    	jmp    QWORD PTR [rip+0x2fca]        # 405000 <free@GLIBC_2.2.5>
  402036:	68 00 00 00 00       	push   0x0
  40203b:	e9 e0 ff ff ff       	jmp    402020 <__safestack_unsafe_stack_ptr@@Base+0x402020>

0000000000402040 <abort@plt>:
  402040:	ff 25 c2 2f 00 00    	jmp    QWORD PTR [rip+0x2fc2]        # 405008 <abort@GLIBC_2.2.5>
  402046:	68 01 00 00 00       	push   0x1
  40204b:	e9 d0 ff ff ff       	jmp    402020 <__safestack_unsafe_stack_ptr@@Base+0x402020>

0000000000402050 <__errno_location@plt>:
  402050:	ff 25 ba 2f 00 00    	jmp    QWORD PTR [rip+0x2fba]        # 405010 <__errno_location@GLIBC_2.2.5>
  402056:	68 02 00 00 00       	push   0x2
  40205b:	e9 c0 ff ff ff       	jmp    402020 <__safestack_unsafe_stack_ptr@@Base+0x402020>

0000000000402060 <puts@plt>:
  402060:	ff 25 b2 2f 00 00    	jmp    QWORD PTR [rip+0x2fb2]        # 405018 <puts@GLIBC_2.2.5>
  402066:	68 03 00 00 00       	push   0x3
  40206b:	e9 b0 ff ff ff       	jmp    402020 <__safestack_unsafe_stack_ptr@@Base+0x402020>

0000000000402070 <getpid@plt>:
  402070:	ff 25 aa 2f 00 00    	jmp    QWORD PTR [rip+0x2faa]        # 405020 <getpid@GLIBC_2.2.5>
  402076:	68 04 00 00 00       	push   0x4
  40207b:	e9 a0 ff ff ff       	jmp    402020 <__safestack_unsafe_stack_ptr@@Base+0x402020>

0000000000402080 <printf@plt>:
  402080:	ff 25 a2 2f 00 00    	jmp    QWORD PTR [rip+0x2fa2]        # 405028 <printf@GLIBC_2.2.5>
  402086:	68 05 00 00 00       	push   0x5
  40208b:	e9 90 ff ff ff       	jmp    402020 <__safestack_unsafe_stack_ptr@@Base+0x402020>

0000000000402090 <pthread_key_create@plt>:
  402090:	ff 25 9a 2f 00 00    	jmp    QWORD PTR [rip+0x2f9a]        # 405030 <pthread_key_create@GLIBC_2.34>
  402096:	68 06 00 00 00       	push   0x6
  40209b:	e9 80 ff ff ff       	jmp    402020 <__safestack_unsafe_stack_ptr@@Base+0x402020>

00000000004020a0 <memset@plt>:
  4020a0:	ff 25 92 2f 00 00    	jmp    QWORD PTR [rip+0x2f92]        # 405038 <memset@GLIBC_2.2.5>
  4020a6:	68 07 00 00 00       	push   0x7
  4020ab:	e9 70 ff ff ff       	jmp    402020 <__safestack_unsafe_stack_ptr@@Base+0x402020>

00000000004020b0 <pthread_attr_init@plt>:
  4020b0:	ff 25 8a 2f 00 00    	jmp    QWORD PTR [rip+0x2f8a]        # 405040 <pthread_attr_init@GLIBC_2.2.5>
  4020b6:	68 08 00 00 00       	push   0x8
  4020bb:	e9 60 ff ff ff       	jmp    402020 <__safestack_unsafe_stack_ptr@@Base+0x402020>

00000000004020c0 <__tls_get_addr@plt>:
  4020c0:	ff 25 82 2f 00 00    	jmp    QWORD PTR [rip+0x2f82]        # 405048 <__tls_get_addr@GLIBC_2.3>
  4020c6:	68 09 00 00 00       	push   0x9
  4020cb:	e9 50 ff ff ff       	jmp    402020 <__safestack_unsafe_stack_ptr@@Base+0x402020>

00000000004020d0 <fprintf@plt>:
  4020d0:	ff 25 7a 2f 00 00    	jmp    QWORD PTR [rip+0x2f7a]        # 405050 <fprintf@GLIBC_2.2.5>
  4020d6:	68 0a 00 00 00       	push   0xa
  4020db:	e9 40 ff ff ff       	jmp    402020 <__safestack_unsafe_stack_ptr@@Base+0x402020>

00000000004020e0 <syscall@plt>:
  4020e0:	ff 25 72 2f 00 00    	jmp    QWORD PTR [rip+0x2f72]        # 405058 <syscall@GLIBC_2.2.5>
  4020e6:	68 0b 00 00 00       	push   0xb
  4020eb:	e9 30 ff ff ff       	jmp    402020 <__safestack_unsafe_stack_ptr@@Base+0x402020>

00000000004020f0 <strtol@plt>:
  4020f0:	ff 25 6a 2f 00 00    	jmp    QWORD PTR [rip+0x2f6a]        # 405060 <strtol@GLIBC_2.2.5>
  4020f6:	68 0c 00 00 00       	push   0xc
  4020fb:	e9 20 ff ff ff       	jmp    402020 <__safestack_unsafe_stack_ptr@@Base+0x402020>

0000000000402100 <gets@plt>:
  402100:	ff 25 62 2f 00 00    	jmp    QWORD PTR [rip+0x2f62]        # 405068 <gets@GLIBC_2.2.5>
  402106:	68 0d 00 00 00       	push   0xd
  40210b:	e9 10 ff ff ff       	jmp    402020 <__safestack_unsafe_stack_ptr@@Base+0x402020>

0000000000402110 <pthread_attr_getguardsize@plt>:
  402110:	ff 25 5a 2f 00 00    	jmp    QWORD PTR [rip+0x2f5a]        # 405070 <pthread_attr_getguardsize@GLIBC_2.34>
  402116:	68 0e 00 00 00       	push   0xe
  40211b:	e9 00 ff ff ff       	jmp    402020 <__safestack_unsafe_stack_ptr@@Base+0x402020>

0000000000402120 <pthread_mutex_unlock@plt>:
  402120:	ff 25 52 2f 00 00    	jmp    QWORD PTR [rip+0x2f52]        # 405078 <pthread_mutex_unlock@GLIBC_2.2.5>
  402126:	68 0f 00 00 00       	push   0xf
  40212b:	e9 f0 fe ff ff       	jmp    402020 <__safestack_unsafe_stack_ptr@@Base+0x402020>

0000000000402130 <malloc@plt>:
  402130:	ff 25 4a 2f 00 00    	jmp    QWORD PTR [rip+0x2f4a]        # 405080 <malloc@GLIBC_2.2.5>
  402136:	68 10 00 00 00       	push   0x10
  40213b:	e9 e0 fe ff ff       	jmp    402020 <__safestack_unsafe_stack_ptr@@Base+0x402020>

0000000000402140 <dlsym@plt>:
  402140:	ff 25 42 2f 00 00    	jmp    QWORD PTR [rip+0x2f42]        # 405088 <dlsym@GLIBC_2.34>
  402146:	68 11 00 00 00       	push   0x11
  40214b:	e9 d0 fe ff ff       	jmp    402020 <__safestack_unsafe_stack_ptr@@Base+0x402020>

0000000000402150 <pthread_attr_destroy@plt>:
  402150:	ff 25 3a 2f 00 00    	jmp    QWORD PTR [rip+0x2f3a]        # 405090 <pthread_attr_destroy@GLIBC_2.2.5>
  402156:	68 12 00 00 00       	push   0x12
  40215b:	e9 c0 fe ff ff       	jmp    402020 <__safestack_unsafe_stack_ptr@@Base+0x402020>

0000000000402160 <getrlimit@plt>:
  402160:	ff 25 32 2f 00 00    	jmp    QWORD PTR [rip+0x2f32]        # 405098 <getrlimit@GLIBC_2.2.5>
  402166:	68 13 00 00 00       	push   0x13
  40216b:	e9 b0 fe ff ff       	jmp    402020 <__safestack_unsafe_stack_ptr@@Base+0x402020>

0000000000402170 <dlvsym@plt>:
  402170:	ff 25 2a 2f 00 00    	jmp    QWORD PTR [rip+0x2f2a]        # 4050a0 <dlvsym@GLIBC_2.34>
  402176:	68 14 00 00 00       	push   0x14
  40217b:	e9 a0 fe ff ff       	jmp    402020 <__safestack_unsafe_stack_ptr@@Base+0x402020>

0000000000402180 <pthread_mutex_lock@plt>:
  402180:	ff 25 22 2f 00 00    	jmp    QWORD PTR [rip+0x2f22]        # 4050a8 <pthread_mutex_lock@GLIBC_2.2.5>
  402186:	68 15 00 00 00       	push   0x15
  40218b:	e9 90 fe ff ff       	jmp    402020 <__safestack_unsafe_stack_ptr@@Base+0x402020>

0000000000402190 <pthread_attr_getstacksize@plt>:
  402190:	ff 25 1a 2f 00 00    	jmp    QWORD PTR [rip+0x2f1a]        # 4050b0 <pthread_attr_getstacksize@GLIBC_2.34>
  402196:	68 16 00 00 00       	push   0x16
  40219b:	e9 80 fe ff ff       	jmp    402020 <__safestack_unsafe_stack_ptr@@Base+0x402020>

00000000004021a0 <pthread_setspecific@plt>:
  4021a0:	ff 25 12 2f 00 00    	jmp    QWORD PTR [rip+0x2f12]        # 4050b8 <pthread_setspecific@GLIBC_2.34>
  4021a6:	68 17 00 00 00       	push   0x17
  4021ab:	e9 70 fe ff ff       	jmp    402020 <__safestack_unsafe_stack_ptr@@Base+0x402020>

Disassembly of section .text:

00000000004021b0 <_start@@Base>:
  4021b0:	f3 0f 1e fa          	endbr64
  4021b4:	31 ed                	xor    ebp,ebp
  4021b6:	49 89 d1             	mov    r9,rdx
  4021b9:	5e                   	pop    rsi
  4021ba:	48 89 e2             	mov    rdx,rsp
  4021bd:	48 83 e4 f0          	and    rsp,0xfffffffffffffff0
  4021c1:	50                   	push   rax
  4021c2:	54                   	push   rsp
  4021c3:	45 31 c0             	xor    r8d,r8d
  4021c6:	31 c9                	xor    ecx,ecx
  4021c8:	48 c7 c7 b0 2e 40 00 	mov    rdi,0x402eb0
  4021cf:	ff 15 fb 2d 00 00    	call   QWORD PTR [rip+0x2dfb]        # 404fd0 <__libc_start_main@GLIBC_2.34>
  4021d5:	f4                   	hlt
  4021d6:	66 2e 0f 1f 84 00 00 	cs nop WORD PTR [rax+rax*1+0x0]
  4021dd:	00 00 00 
  4021e0:	f3 0f 1e fa          	endbr64
  4021e4:	c3                   	ret
  4021e5:	66 2e 0f 1f 84 00 00 	cs nop WORD PTR [rax+rax*1+0x0]
  4021ec:	00 00 00 
  4021ef:	90                   	nop
  4021f0:	b8 10 51 40 00       	mov    eax,0x405110
  4021f5:	48 3d 10 51 40 00    	cmp    rax,0x405110
  4021fb:	74 13                	je     402210 <_start@@Base+0x60>
  4021fd:	b8 00 00 00 00       	mov    eax,0x0
  402202:	48 85 c0             	test   rax,rax
  402205:	74 09                	je     402210 <_start@@Base+0x60>
  402207:	bf 10 51 40 00       	mov    edi,0x405110
  40220c:	ff e0                	jmp    rax
  40220e:	66 90                	xchg   ax,ax
  402210:	c3                   	ret
  402211:	66 66 2e 0f 1f 84 00 	data16 cs nop WORD PTR [rax+rax*1+0x0]
  402218:	00 00 00 00 
  40221c:	0f 1f 40 00          	nop    DWORD PTR [rax+0x0]
  402220:	be 10 51 40 00       	mov    esi,0x405110
  402225:	48 81 ee 10 51 40 00 	sub    rsi,0x405110
  40222c:	48 89 f0             	mov    rax,rsi
  40222f:	48 c1 ee 3f          	shr    rsi,0x3f
  402233:	48 c1 f8 03          	sar    rax,0x3
  402237:	48 01 c6             	add    rsi,rax
  40223a:	48 d1 fe             	sar    rsi,1
  40223d:	74 11                	je     402250 <_start@@Base+0xa0>
  40223f:	b8 00 00 00 00       	mov    eax,0x0
  402244:	48 85 c0             	test   rax,rax
  402247:	74 07                	je     402250 <_start@@Base+0xa0>
  402249:	bf 10 51 40 00       	mov    edi,0x405110
  40224e:	ff e0                	jmp    rax
  402250:	c3                   	ret
  402251:	66 66 2e 0f 1f 84 00 	data16 cs nop WORD PTR [rax+rax*1+0x0]
  402258:	00 00 00 00 
  40225c:	0f 1f 40 00          	nop    DWORD PTR [rax+0x0]
  402260:	f3 0f 1e fa          	endbr64
  402264:	80 3d a5 2e 00 00 00 	cmp    BYTE PTR [rip+0x2ea5],0x0        # 405110 <__bss_start@@Base>
  40226b:	75 13                	jne    402280 <_start@@Base+0xd0>
  40226d:	55                   	push   rbp
  40226e:	48 89 e5             	mov    rbp,rsp
  402271:	e8 7a ff ff ff       	call   4021f0 <_start@@Base+0x40>
  402276:	c6 05 93 2e 00 00 01 	mov    BYTE PTR [rip+0x2e93],0x1        # 405110 <__bss_start@@Base>
  40227d:	5d                   	pop    rbp
  40227e:	c3                   	ret
  40227f:	90                   	nop
  402280:	c3                   	ret
  402281:	66 66 2e 0f 1f 84 00 	data16 cs nop WORD PTR [rax+rax*1+0x0]
  402288:	00 00 00 00 
  40228c:	0f 1f 40 00          	nop    DWORD PTR [rax+0x0]
  402290:	f3 0f 1e fa          	endbr64
  402294:	eb 8a                	jmp    402220 <_start@@Base+0x70>
  402296:	66 90                	xchg   ax,ax

0000000000402298 <__interceptor_trampoline_pthread_create@@Base>:
  402298:	e9 03 00 00 00       	jmp    4022a0 <___interceptor_pthread_create@@Base>
  40229d:	0f 1f 00             	nop    DWORD PTR [rax]

00000000004022a0 <___interceptor_pthread_create@@Base>:
  4022a0:	f3 0f 1e fa          	endbr64
  4022a4:	55                   	push   rbp
  4022a5:	41 57                	push   r15
  4022a7:	41 56                	push   r14
  4022a9:	41 55                	push   r13
  4022ab:	41 54                	push   r12
  4022ad:	53                   	push   rbx
  4022ae:	48 83 ec 58          	sub    rsp,0x58
  4022b2:	49 89 cf             	mov    r15,rcx
  4022b5:	49 89 d4             	mov    r12,rdx
  4022b8:	48 89 f3             	mov    rbx,rsi
  4022bb:	49 89 fe             	mov    r14,rdi
  4022be:	48 8d 3d 63 2e 00 00 	lea    rdi,[rip+0x2e63]        # 405128 <__bss_start@@Base+0x18>
  4022c5:	e8 b6 fe ff ff       	call   402180 <pthread_mutex_lock@plt>
  4022ca:	80 3d 7f 2e 00 00 00 	cmp    BYTE PTR [rip+0x2e7f],0x0        # 405150 <__bss_start@@Base+0x40>
  4022d1:	75 28                	jne    4022fb <___interceptor_pthread_create@@Base+0x5b>
  4022d3:	48 8d 3d 9c 0d 00 00 	lea    rdi,[rip+0xd9c]        # 403076 <_IO_stdin_used@@Base+0x76>
  4022da:	48 8d 35 37 2e 00 00 	lea    rsi,[rip+0x2e37]        # 405118 <__bss_start@@Base+0x8>
  4022e1:	48 c7 c2 98 22 40 00 	mov    rdx,0x402298
  4022e8:	48 c7 c1 98 22 40 00 	mov    rcx,0x402298
  4022ef:	e8 0c 07 00 00       	call   402a00 <__get_unsafe_stack_ptr@@Base+0x20>
  4022f4:	c6 05 55 2e 00 00 01 	mov    BYTE PTR [rip+0x2e55],0x1        # 405150 <__bss_start@@Base+0x40>
  4022fb:	48 8d 3d 26 2e 00 00 	lea    rdi,[rip+0x2e26]        # 405128 <__bss_start@@Base+0x18>
  402302:	e8 19 fe ff ff       	call   402120 <pthread_mutex_unlock@plt>
  402307:	48 c7 44 24 10 00 00 	mov    QWORD PTR [rsp+0x10],0x0
  40230e:	00 00 
  402310:	48 c7 44 24 18 00 00 	mov    QWORD PTR [rsp+0x18],0x0
  402317:	00 00 
  402319:	48 85 db             	test   rbx,rbx
  40231c:	0f 84 db 00 00 00    	je     4023fd <___interceptor_pthread_create@@Base+0x15d>
  402322:	48 8d 74 24 10       	lea    rsi,[rsp+0x10]
  402327:	48 89 df             	mov    rdi,rbx
  40232a:	e8 61 fe ff ff       	call   402190 <pthread_attr_getstacksize@plt>
  40232f:	48 8d 74 24 18       	lea    rsi,[rsp+0x18]
  402334:	48 89 df             	mov    rdi,rbx
  402337:	e8 d4 fd ff ff       	call   402110 <pthread_attr_getguardsize@plt>
  40233c:	48 8b 54 24 10       	mov    rdx,QWORD PTR [rsp+0x10]
  402341:	48 85 d2             	test   rdx,rdx
  402344:	0f 84 f0 00 00 00    	je     40243a <___interceptor_pthread_create@@Base+0x19a>
  40234a:	48 83 c2 0f          	add    rdx,0xf
  40234e:	48 83 e2 f0          	and    rdx,0xfffffffffffffff0
  402352:	48 89 54 24 10       	mov    QWORD PTR [rsp+0x10],rdx
  402357:	4c 8b 6c 24 18       	mov    r13,QWORD PTR [rsp+0x18]
  40235c:	4c 01 ea             	add    rdx,r13
  40235f:	0f 82 05 01 00 00    	jb     40246a <___interceptor_pthread_create@@Base+0x1ca>
  402365:	48 c7 04 24 00 00 00 	mov    QWORD PTR [rsp],0x0
  40236c:	00 
  40236d:	bf 09 00 00 00       	mov    edi,0x9
  402372:	31 f6                	xor    esi,esi
  402374:	b9 03 00 00 00       	mov    ecx,0x3
  402379:	41 b8 22 00 00 00    	mov    r8d,0x22
  40237f:	41 b9 ff ff ff ff    	mov    r9d,0xffffffff
  402385:	31 c0                	xor    eax,eax
  402387:	e8 54 fd ff ff       	call   4020e0 <syscall@plt>
  40238c:	48 83 f8 ff          	cmp    rax,0xffffffffffffffff
  402390:	0f 84 04 01 00 00    	je     40249a <___interceptor_pthread_create@@Base+0x1fa>
  402396:	48 89 c5             	mov    rbp,rax
  402399:	bf 0a 00 00 00       	mov    edi,0xa
  40239e:	48 89 c6             	mov    rsi,rax
  4023a1:	4c 89 ea             	mov    rdx,r13
  4023a4:	31 c9                	xor    ecx,ecx
  4023a6:	31 c0                	xor    eax,eax
  4023a8:	e8 33 fd ff ff       	call   4020e0 <syscall@plt>
  4023ad:	4c 01 ed             	add    rbp,r13
  4023b0:	48 8b 44 24 10       	mov    rax,QWORD PTR [rsp+0x10]
  4023b5:	48 8d 0c 28          	lea    rcx,[rax+rbp*1]
  4023b9:	48 83 c1 d8          	add    rcx,0xffffffffffffffd8
  4023bd:	4c 89 64 28 d8       	mov    QWORD PTR [rax+rbp*1-0x28],r12
  4023c2:	4c 89 7c 28 e0       	mov    QWORD PTR [rax+rbp*1-0x20],r15
  4023c7:	48 89 6c 28 e8       	mov    QWORD PTR [rax+rbp*1-0x18],rbp
  4023cc:	48 89 44 28 f0       	mov    QWORD PTR [rax+rbp*1-0x10],rax
  4023d1:	48 8b 54 24 18       	mov    rdx,QWORD PTR [rsp+0x18]
  4023d6:	48 89 54 28 f8       	mov    QWORD PTR [rax+rbp*1-0x8],rdx
  4023db:	48 8d 15 ee 00 00 00 	lea    rdx,[rip+0xee]        # 4024d0 <___interceptor_pthread_create@@Base+0x230>
  4023e2:	4c 89 f7             	mov    rdi,r14
  4023e5:	48 89 de             	mov    rsi,rbx
  4023e8:	ff 15 2a 2d 00 00    	call   QWORD PTR [rip+0x2d2a]        # 405118 <__bss_start@@Base+0x8>
  4023ee:	48 83 c4 58          	add    rsp,0x58
  4023f2:	5b                   	pop    rbx
  4023f3:	41 5c                	pop    r12
  4023f5:	41 5d                	pop    r13
  4023f7:	41 5e                	pop    r14
  4023f9:	41 5f                	pop    r15
  4023fb:	5d                   	pop    rbp
  4023fc:	c3                   	ret
  4023fd:	4c 8d 6c 24 20       	lea    r13,[rsp+0x20]
  402402:	4c 89 ef             	mov    rdi,r13
  402405:	e8 a6 fc ff ff       	call   4020b0 <pthread_attr_init@plt>
  40240a:	48 8d 74 24 10       	lea    rsi,[rsp+0x10]
  40240f:	4c 89 ef             	mov    rdi,r13
  402412:	e8 79 fd ff ff       	call   402190 <pthread_attr_getstacksize@plt>
  402417:	48 8d 74 24 18       	lea    rsi,[rsp+0x18]
  40241c:	4c 89 ef             	mov    rdi,r13
  40241f:	e8 ec fc ff ff       	call   402110 <pthread_attr_getguardsize@plt>
  402424:	4c 89 ef             	mov    rdi,r13
  402427:	e8 24 fd ff ff       	call   402150 <pthread_attr_destroy@plt>
  40242c:	48 8b 54 24 10       	mov    rdx,QWORD PTR [rsp+0x10]
  402431:	48 85 d2             	test   rdx,rdx
  402434:	0f 85 10 ff ff ff    	jne    40234a <___interceptor_pthread_create@@Base+0xaa>
  40243a:	48 8b 05 9f 2b 00 00 	mov    rax,QWORD PTR [rip+0x2b9f]        # 404fe0 <stderr@GLIBC_2.2.5>
  402441:	48 8b 38             	mov    rdi,QWORD PTR [rax]
  402444:	48 8d 35 b9 0b 00 00 	lea    rsi,[rip+0xbb9]        # 403004 <_IO_stdin_used@@Base+0x4>
  40244b:	48 8d 15 d4 0b 00 00 	lea    rdx,[rip+0xbd4]        # 403026 <_IO_stdin_used@@Base+0x26>
  402452:	4c 8d 05 05 0c 00 00 	lea    r8,[rip+0xc05]        # 40305e <_IO_stdin_used@@Base+0x5e>
  402459:	b9 e3 00 00 00       	mov    ecx,0xe3
  40245e:	31 c0                	xor    eax,eax
  402460:	e8 6b fc ff ff       	call   4020d0 <fprintf@plt>
  402465:	e8 d6 fb ff ff       	call   402040 <abort@plt>
  40246a:	48 8b 05 6f 2b 00 00 	mov    rax,QWORD PTR [rip+0x2b6f]        # 404fe0 <stderr@GLIBC_2.2.5>
  402471:	48 8b 38             	mov    rdi,QWORD PTR [rax]
  402474:	48 8d 35 89 0b 00 00 	lea    rsi,[rip+0xb89]        # 403004 <_IO_stdin_used@@Base+0x4>
  40247b:	48 8d 15 a4 0b 00 00 	lea    rdx,[rip+0xba4]        # 403026 <_IO_stdin_used@@Base+0x26>
  402482:	4c 8d 05 c5 0b 00 00 	lea    r8,[rip+0xbc5]        # 40304e <_IO_stdin_used@@Base+0x4e>
  402489:	b9 5c 00 00 00       	mov    ecx,0x5c
  40248e:	31 c0                	xor    eax,eax
  402490:	e8 3b fc ff ff       	call   4020d0 <fprintf@plt>
  402495:	e8 a6 fb ff ff       	call   402040 <abort@plt>
  40249a:	48 8b 05 3f 2b 00 00 	mov    rax,QWORD PTR [rip+0x2b3f]        # 404fe0 <stderr@GLIBC_2.2.5>
  4024a1:	48 8b 38             	mov    rdi,QWORD PTR [rax]
  4024a4:	48 8d 35 59 0b 00 00 	lea    rsi,[rip+0xb59]        # 403004 <_IO_stdin_used@@Base+0x4>
  4024ab:	48 8d 15 74 0b 00 00 	lea    rdx,[rip+0xb74]        # 403026 <_IO_stdin_used@@Base+0x26>
  4024b2:	4c 8d 05 aa 0b 00 00 	lea    r8,[rip+0xbaa]        # 403063 <_IO_stdin_used@@Base+0x63>
  4024b9:	b9 5f 00 00 00       	mov    ecx,0x5f
  4024be:	31 c0                	xor    eax,eax
  4024c0:	e8 0b fc ff ff       	call   4020d0 <fprintf@plt>
  4024c5:	e8 76 fb ff ff       	call   402040 <abort@plt>
  4024ca:	66 0f 1f 44 00 00    	nop    WORD PTR [rax+rax*1+0x0]
  4024d0:	f3 0f 1e fa          	endbr64
  4024d4:	55                   	push   rbp
  4024d5:	41 57                	push   r15
  4024d7:	41 56                	push   r14
  4024d9:	41 55                	push   r13
  4024db:	41 54                	push   r12
  4024dd:	53                   	push   rbx
  4024de:	50                   	push   rax
  4024df:	4c 8b 77 18          	mov    r14,QWORD PTR [rdi+0x18]
  4024e3:	4d 85 f6             	test   r14,r14
  4024e6:	0f 88 80 00 00 00    	js     40256c <___interceptor_pthread_create@@Base+0x2cc>
  4024ec:	4c 8b 7f 20          	mov    r15,QWORD PTR [rdi+0x20]
  4024f0:	4d 85 ff             	test   r15,r15
  4024f3:	0f 88 a3 00 00 00    	js     40259c <___interceptor_pthread_create@@Base+0x2fc>
  4024f9:	4c 8b 67 10          	mov    r12,QWORD PTR [rdi+0x10]
  4024fd:	4f 8d 2c 34          	lea    r13,[r12+r14*1]
  402501:	41 f6 c5 0f          	test   r13b,0xf
  402505:	0f 85 c1 00 00 00    	jne    4025cc <___interceptor_pthread_create@@Base+0x32c>
  40250b:	48 8b 2f             	mov    rbp,QWORD PTR [rdi]
  40250e:	48 8b 5f 08          	mov    rbx,QWORD PTR [rdi+0x8]
  402512:	64 48 8b 04 25 00 00 	mov    rax,QWORD PTR fs:0x0
  402519:	00 00 
  40251b:	48 03 05 a6 2a 00 00 	add    rax,QWORD PTR [rip+0x2aa6]        # 404fc8 <__safestack_unsafe_stack_ptr@@Base+0x404fc8>
  402522:	4c 89 28             	mov    QWORD PTR [rax],r13
  402525:	66 66 66 64 48 8b 04 	data16 data16 data16 mov rax,QWORD PTR fs:0x0
  40252c:	25 00 00 00 00 
  402531:	4c 89 a0 e8 ff ff ff 	mov    QWORD PTR [rax-0x18],r12
  402538:	4c 89 b0 f0 ff ff ff 	mov    QWORD PTR [rax-0x10],r14
  40253f:	4c 89 b8 f8 ff ff ff 	mov    QWORD PTR [rax-0x8],r15
  402546:	8b 3d d4 2b 00 00    	mov    edi,DWORD PTR [rip+0x2bd4]        # 405120 <__bss_start@@Base+0x10>
  40254c:	be 01 00 00 00       	mov    esi,0x1
  402551:	e8 4a fc ff ff       	call   4021a0 <pthread_setspecific@plt>
  402556:	48 89 df             	mov    rdi,rbx
  402559:	48 89 e8             	mov    rax,rbp
  40255c:	48 83 c4 08          	add    rsp,0x8
  402560:	5b                   	pop    rbx
  402561:	41 5c                	pop    r12
  402563:	41 5d                	pop    r13
  402565:	41 5e                	pop    r14
  402567:	41 5f                	pop    r15
  402569:	5d                   	pop    rbp
  40256a:	ff e0                	jmp    rax
  40256c:	48 8b 05 6d 2a 00 00 	mov    rax,QWORD PTR [rip+0x2a6d]        # 404fe0 <stderr@GLIBC_2.2.5>
  402573:	48 8b 38             	mov    rdi,QWORD PTR [rax]
  402576:	48 8d 35 87 0a 00 00 	lea    rsi,[rip+0xa87]        # 403004 <_IO_stdin_used@@Base+0x4>
  40257d:	48 8d 15 a2 0a 00 00 	lea    rdx,[rip+0xaa2]        # 403026 <_IO_stdin_used@@Base+0x26>
  402584:	4c 8d 05 fa 0a 00 00 	lea    r8,[rip+0xafa]        # 403085 <_IO_stdin_used@@Base+0x85>
  40258b:	b9 65 00 00 00       	mov    ecx,0x65
  402590:	31 c0                	xor    eax,eax
  402592:	e8 39 fb ff ff       	call   4020d0 <fprintf@plt>
  402597:	e8 a4 fa ff ff       	call   402040 <abort@plt>
  40259c:	48 8b 05 3d 2a 00 00 	mov    rax,QWORD PTR [rip+0x2a3d]        # 404fe0 <stderr@GLIBC_2.2.5>
  4025a3:	48 8b 38             	mov    rdi,QWORD PTR [rax]
  4025a6:	48 8d 35 57 0a 00 00 	lea    rsi,[rip+0xa57]        # 403004 <_IO_stdin_used@@Base+0x4>
  4025ad:	48 8d 15 72 0a 00 00 	lea    rdx,[rip+0xa72]        # 403026 <_IO_stdin_used@@Base+0x26>
  4025b4:	4c 8d 05 f0 0a 00 00 	lea    r8,[rip+0xaf0]        # 4030ab <_IO_stdin_used@@Base+0xab>
  4025bb:	b9 66 00 00 00       	mov    ecx,0x66
  4025c0:	31 c0                	xor    eax,eax
  4025c2:	e8 09 fb ff ff       	call   4020d0 <fprintf@plt>
  4025c7:	e8 74 fa ff ff       	call   402040 <abort@plt>
  4025cc:	48 8b 05 0d 2a 00 00 	mov    rax,QWORD PTR [rip+0x2a0d]        # 404fe0 <stderr@GLIBC_2.2.5>
  4025d3:	48 8b 38             	mov    rdi,QWORD PTR [rax]
  4025d6:	48 8d 35 27 0a 00 00 	lea    rsi,[rip+0xa27]        # 403004 <_IO_stdin_used@@Base+0x4>
  4025dd:	48 8d 15 42 0a 00 00 	lea    rdx,[rip+0xa42]        # 403026 <_IO_stdin_used@@Base+0x26>
  4025e4:	4c 8d 05 e7 0a 00 00 	lea    r8,[rip+0xae7]        # 4030d2 <_IO_stdin_used@@Base+0xd2>
  4025eb:	b9 68 00 00 00       	mov    ecx,0x68
  4025f0:	31 c0                	xor    eax,eax
  4025f2:	e8 d9 fa ff ff       	call   4020d0 <fprintf@plt>
  4025f7:	e8 44 fa ff ff       	call   402040 <abort@plt>
  4025fc:	0f 1f 40 00          	nop    DWORD PTR [rax+0x0]

0000000000402600 <__safestack_init@@Base>:
  402600:	f3 0f 1e fa          	endbr64
  402604:	41 57                	push   r15
  402606:	41 56                	push   r14
  402608:	53                   	push   rbx
  402609:	48 83 ec 20          	sub    rsp,0x20
  40260d:	48 8d 74 24 10       	lea    rsi,[rsp+0x10]
  402612:	bf 03 00 00 00       	mov    edi,0x3
  402617:	e8 44 fb ff ff       	call   402160 <getrlimit@plt>
  40261c:	4c 8b 74 24 10       	mov    r14,QWORD PTR [rsp+0x10]
  402621:	49 83 fe ff          	cmp    r14,0xffffffffffffffff
  402625:	b9 00 00 80 02       	mov    ecx,0x2800000
  40262a:	4c 0f 44 f1          	cmove  r14,rcx
  40262e:	85 c0                	test   eax,eax
  402630:	4c 0f 45 f1          	cmovne r14,rcx
  402634:	49 81 fe 00 f0 ff ff 	cmp    r14,0xfffffffffffff000
  40263b:	0f 83 cb 00 00 00    	jae    40270c <__safestack_init@@Base+0x10c>
  402641:	49 8d 96 00 10 00 00 	lea    rdx,[r14+0x1000]
  402648:	48 c7 04 24 00 00 00 	mov    QWORD PTR [rsp],0x0
  40264f:	00 
  402650:	bf 09 00 00 00       	mov    edi,0x9
  402655:	31 f6                	xor    esi,esi
  402657:	b9 03 00 00 00       	mov    ecx,0x3
  40265c:	41 b8 22 00 00 00    	mov    r8d,0x22
  402662:	41 b9 ff ff ff ff    	mov    r9d,0xffffffff
  402668:	31 c0                	xor    eax,eax
  40266a:	e8 71 fa ff ff       	call   4020e0 <syscall@plt>
  40266f:	48 83 f8 ff          	cmp    rax,0xffffffffffffffff
  402673:	0f 84 c3 00 00 00    	je     40273c <__safestack_init@@Base+0x13c>
  402679:	48 89 c3             	mov    rbx,rax
  40267c:	bf 0a 00 00 00       	mov    edi,0xa
  402681:	ba 00 10 00 00       	mov    edx,0x1000
  402686:	48 89 c6             	mov    rsi,rax
  402689:	31 c9                	xor    ecx,ecx
  40268b:	31 c0                	xor    eax,eax
  40268d:	e8 4e fa ff ff       	call   4020e0 <syscall@plt>
  402692:	4d 85 f6             	test   r14,r14
  402695:	0f 88 d1 00 00 00    	js     40276c <__safestack_init@@Base+0x16c>
  40269b:	4e 8d 3c 33          	lea    r15,[rbx+r14*1]
  40269f:	49 81 c7 00 10 00 00 	add    r15,0x1000
  4026a6:	41 f6 c7 0f          	test   r15b,0xf
  4026aa:	0f 85 ec 00 00 00    	jne    40279c <__safestack_init@@Base+0x19c>
  4026b0:	48 81 c3 00 10 00 00 	add    rbx,0x1000
  4026b7:	64 48 8b 04 25 00 00 	mov    rax,QWORD PTR fs:0x0
  4026be:	00 00 
  4026c0:	48 03 05 01 29 00 00 	add    rax,QWORD PTR [rip+0x2901]        # 404fc8 <__safestack_unsafe_stack_ptr@@Base+0x404fc8>
  4026c7:	4c 89 38             	mov    QWORD PTR [rax],r15
  4026ca:	66 66 66 64 48 8b 04 	data16 data16 data16 mov rax,QWORD PTR fs:0x0
  4026d1:	25 00 00 00 00 
  4026d6:	48 89 98 e8 ff ff ff 	mov    QWORD PTR [rax-0x18],rbx
  4026dd:	4c 89 b0 f0 ff ff ff 	mov    QWORD PTR [rax-0x10],r14
  4026e4:	48 c7 80 f8 ff ff ff 	mov    QWORD PTR [rax-0x8],0x1000
  4026eb:	00 10 00 00 
  4026ef:	48 8d 3d 2a 2a 00 00 	lea    rdi,[rip+0x2a2a]        # 405120 <__bss_start@@Base+0x10>
  4026f6:	48 8d 35 d3 00 00 00 	lea    rsi,[rip+0xd3]        # 4027d0 <__safestack_init@@Base+0x1d0>
  4026fd:	e8 8e f9 ff ff       	call   402090 <pthread_key_create@plt>
  402702:	48 83 c4 20          	add    rsp,0x20
  402706:	5b                   	pop    rbx
  402707:	41 5e                	pop    r14
  402709:	41 5f                	pop    r15
  40270b:	c3                   	ret
  40270c:	48 8b 05 cd 28 00 00 	mov    rax,QWORD PTR [rip+0x28cd]        # 404fe0 <stderr@GLIBC_2.2.5>
  402713:	48 8b 38             	mov    rdi,QWORD PTR [rax]
  402716:	48 8d 35 e7 08 00 00 	lea    rsi,[rip+0x8e7]        # 403004 <_IO_stdin_used@@Base+0x4>
  40271d:	48 8d 15 02 09 00 00 	lea    rdx,[rip+0x902]        # 403026 <_IO_stdin_used@@Base+0x26>
  402724:	4c 8d 05 23 09 00 00 	lea    r8,[rip+0x923]        # 40304e <_IO_stdin_used@@Base+0x4e>
  40272b:	b9 5c 00 00 00       	mov    ecx,0x5c
  402730:	31 c0                	xor    eax,eax
  402732:	e8 99 f9 ff ff       	call   4020d0 <fprintf@plt>
  402737:	e8 04 f9 ff ff       	call   402040 <abort@plt>
  40273c:	48 8b 05 9d 28 00 00 	mov    rax,QWORD PTR [rip+0x289d]        # 404fe0 <stderr@GLIBC_2.2.5>
  402743:	48 8b 38             	mov    rdi,QWORD PTR [rax]
  402746:	48 8d 35 b7 08 00 00 	lea    rsi,[rip+0x8b7]        # 403004 <_IO_stdin_used@@Base+0x4>
  40274d:	48 8d 15 d2 08 00 00 	lea    rdx,[rip+0x8d2]        # 403026 <_IO_stdin_used@@Base+0x26>
  402754:	4c 8d 05 08 09 00 00 	lea    r8,[rip+0x908]        # 403063 <_IO_stdin_used@@Base+0x63>
  40275b:	b9 5f 00 00 00       	mov    ecx,0x5f
  402760:	31 c0                	xor    eax,eax
  402762:	e8 69 f9 ff ff       	call   4020d0 <fprintf@plt>
  402767:	e8 d4 f8 ff ff       	call   402040 <abort@plt>
  40276c:	48 8b 05 6d 28 00 00 	mov    rax,QWORD PTR [rip+0x286d]        # 404fe0 <stderr@GLIBC_2.2.5>
  402773:	48 8b 38             	mov    rdi,QWORD PTR [rax]
  402776:	48 8d 35 87 08 00 00 	lea    rsi,[rip+0x887]        # 403004 <_IO_stdin_used@@Base+0x4>
  40277d:	48 8d 15 a2 08 00 00 	lea    rdx,[rip+0x8a2]        # 403026 <_IO_stdin_used@@Base+0x26>
  402784:	4c 8d 05 fa 08 00 00 	lea    r8,[rip+0x8fa]        # 403085 <_IO_stdin_used@@Base+0x85>
  40278b:	b9 65 00 00 00       	mov    ecx,0x65
  402790:	31 c0                	xor    eax,eax
  402792:	e8 39 f9 ff ff       	call   4020d0 <fprintf@plt>
  402797:	e8 a4 f8 ff ff       	call   402040 <abort@plt>
  40279c:	48 8b 05 3d 28 00 00 	mov    rax,QWORD PTR [rip+0x283d]        # 404fe0 <stderr@GLIBC_2.2.5>
  4027a3:	48 8b 38             	mov    rdi,QWORD PTR [rax]
  4027a6:	48 8d 35 57 08 00 00 	lea    rsi,[rip+0x857]        # 403004 <_IO_stdin_used@@Base+0x4>
  4027ad:	48 8d 15 72 08 00 00 	lea    rdx,[rip+0x872]        # 403026 <_IO_stdin_used@@Base+0x26>
  4027b4:	4c 8d 05 17 09 00 00 	lea    r8,[rip+0x917]        # 4030d2 <_IO_stdin_used@@Base+0xd2>
  4027bb:	b9 68 00 00 00       	mov    ecx,0x68
  4027c0:	31 c0                	xor    eax,eax
  4027c2:	e8 09 f9 ff ff       	call   4020d0 <fprintf@plt>
  4027c7:	e8 74 f8 ff ff       	call   402040 <abort@plt>
  4027cc:	0f 1f 40 00          	nop    DWORD PTR [rax+0x0]
  4027d0:	f3 0f 1e fa          	endbr64
  4027d4:	55                   	push   rbp
  4027d5:	41 57                	push   r15
  4027d7:	41 56                	push   r14
  4027d9:	41 55                	push   r13
  4027db:	41 54                	push   r12
  4027dd:	53                   	push   rbx
  4027de:	50                   	push   rax
  4027df:	66 66 66 64 48 8b 04 	data16 data16 data16 mov rax,QWORD PTR fs:0x0
  4027e6:	25 00 00 00 00 
  4027eb:	48 83 b8 e8 ff ff ff 	cmp    QWORD PTR [rax-0x18],0x0
  4027f2:	00 
  4027f3:	0f 84 47 01 00 00    	je     402940 <__safestack_init@@Base+0x340>
  4027f9:	48 89 c3             	mov    rbx,rax
  4027fc:	4c 8d a0 e8 ff ff ff 	lea    r12,[rax-0x18]
  402803:	8b 3d 17 29 00 00    	mov    edi,DWORD PTR [rip+0x2917]        # 405120 <__bss_start@@Base+0x10>
  402809:	31 f6                	xor    esi,esi
  40280b:	e8 90 f9 ff ff       	call   4021a0 <pthread_setspecific@plt>
  402810:	4c 8d 35 41 29 00 00 	lea    r14,[rip+0x2941]        # 405158 <__bss_start@@Base+0x48>
  402817:	4c 89 f7             	mov    rdi,r14
  40281a:	e8 61 f9 ff ff       	call   402180 <pthread_mutex_lock@plt>
  40281f:	4c 8b 3d 5a 29 00 00 	mov    r15,QWORD PTR [rip+0x295a]        # 405180 <__bss_start@@Base+0x70>
  402826:	4c 89 3c 24          	mov    QWORD PTR [rsp],r15
  40282a:	48 c7 05 4b 29 00 00 	mov    QWORD PTR [rip+0x294b],0x0        # 405180 <__bss_start@@Base+0x70>
  402831:	00 00 00 00 
  402835:	4c 89 f7             	mov    rdi,r14
  402838:	e8 e3 f8 ff ff       	call   402120 <pthread_mutex_unlock@plt>
  40283d:	e8 2e f8 ff ff       	call   402070 <getpid@plt>
  402842:	89 c5                	mov    ebp,eax
  402844:	bf ba 00 00 00       	mov    edi,0xba
  402849:	31 c0                	xor    eax,eax
  40284b:	e8 90 f8 ff ff       	call   4020e0 <syscall@plt>
  402850:	49 89 c6             	mov    r14,rax
  402853:	49 89 e5             	mov    r13,rsp
  402856:	eb 2f                	jmp    402887 <__safestack_init@@Base+0x287>
  402858:	0f 1f 84 00 00 00 00 	nop    DWORD PTR [rax+rax*1+0x0]
  40285f:	00 
  402860:	49 8b 77 08          	mov    rsi,QWORD PTR [r15+0x8]
  402864:	49 8b 57 10          	mov    rdx,QWORD PTR [r15+0x10]
  402868:	bf 0b 00 00 00       	mov    edi,0xb
  40286d:	31 c0                	xor    eax,eax
  40286f:	e8 6c f8 ff ff       	call   4020e0 <syscall@plt>
  402874:	49 8b 07             	mov    rax,QWORD PTR [r15]
  402877:	49 89 45 00          	mov    QWORD PTR [r13+0x0],rax
  40287b:	4c 89 ff             	mov    rdi,r15
  40287e:	e8 ad f7 ff ff       	call   402030 <free@plt>
  402883:	4d 8b 7d 00          	mov    r15,QWORD PTR [r13+0x0]
  402887:	4d 85 ff             	test   r15,r15
  40288a:	74 3c                	je     4028c8 <__safestack_init@@Base+0x2c8>
  40288c:	41 39 6f 18          	cmp    DWORD PTR [r15+0x18],ebp
  402890:	75 ce                	jne    402860 <__safestack_init@@Base+0x260>
  402892:	49 8b 57 20          	mov    rdx,QWORD PTR [r15+0x20]
  402896:	bf ea 00 00 00       	mov    edi,0xea
  40289b:	89 ee                	mov    esi,ebp
  40289d:	31 c9                	xor    ecx,ecx
  40289f:	31 c0                	xor    eax,eax
  4028a1:	e8 3a f8 ff ff       	call   4020e0 <syscall@plt>
  4028a6:	83 f8 ff             	cmp    eax,0xffffffff
  4028a9:	75 15                	jne    4028c0 <__safestack_init@@Base+0x2c0>
  4028ab:	e8 a0 f7 ff ff       	call   402050 <__errno_location@plt>
  4028b0:	83 38 03             	cmp    DWORD PTR [rax],0x3
  4028b3:	74 ab                	je     402860 <__safestack_init@@Base+0x260>
  4028b5:	4d 89 fd             	mov    r13,r15
  4028b8:	4d 8b 3f             	mov    r15,QWORD PTR [r15]
  4028bb:	eb ca                	jmp    402887 <__safestack_init@@Base+0x287>
  4028bd:	0f 1f 00             	nop    DWORD PTR [rax]
  4028c0:	4d 89 fd             	mov    r13,r15
  4028c3:	4d 8b 3f             	mov    r15,QWORD PTR [r15]
  4028c6:	eb bf                	jmp    402887 <__safestack_init@@Base+0x287>
  4028c8:	bf 28 00 00 00       	mov    edi,0x28
  4028cd:	e8 5e f8 ff ff       	call   402130 <malloc@plt>
  4028d2:	49 89 c7             	mov    r15,rax
  4028d5:	49 8b 0c 24          	mov    rcx,QWORD PTR [r12]
  4028d9:	48 8b 93 f8 ff ff ff 	mov    rdx,QWORD PTR [rbx-0x8]
  4028e0:	48 29 d1             	sub    rcx,rdx
  4028e3:	48 89 48 08          	mov    QWORD PTR [rax+0x8],rcx
  4028e7:	48 03 93 f0 ff ff ff 	add    rdx,QWORD PTR [rbx-0x10]
  4028ee:	48 89 50 10          	mov    QWORD PTR [rax+0x10],rdx
  4028f2:	89 68 18             	mov    DWORD PTR [rax+0x18],ebp
  4028f5:	4c 89 70 20          	mov    QWORD PTR [rax+0x20],r14
  4028f9:	48 8d 1d 58 28 00 00 	lea    rbx,[rip+0x2858]        # 405158 <__bss_start@@Base+0x48>
  402900:	48 89 df             	mov    rdi,rbx
  402903:	e8 78 f8 ff ff       	call   402180 <pthread_mutex_lock@plt>
  402908:	48 8b 05 71 28 00 00 	mov    rax,QWORD PTR [rip+0x2871]        # 405180 <__bss_start@@Base+0x70>
  40290f:	49 89 45 00          	mov    QWORD PTR [r13+0x0],rax
  402913:	48 8b 04 24          	mov    rax,QWORD PTR [rsp]
  402917:	49 89 07             	mov    QWORD PTR [r15],rax
  40291a:	4c 89 3d 5f 28 00 00 	mov    QWORD PTR [rip+0x285f],r15        # 405180 <__bss_start@@Base+0x70>
  402921:	48 89 df             	mov    rdi,rbx
  402924:	e8 f7 f7 ff ff       	call   402120 <pthread_mutex_unlock@plt>
  402929:	49 c7 04 24 00 00 00 	mov    QWORD PTR [r12],0x0
  402930:	00 
  402931:	48 83 c4 08          	add    rsp,0x8
  402935:	5b                   	pop    rbx
  402936:	41 5c                	pop    r12
  402938:	41 5d                	pop    r13
  40293a:	41 5e                	pop    r14
  40293c:	41 5f                	pop    r15
  40293e:	5d                   	pop    rbp
  40293f:	c3                   	ret
  402940:	48 8b 05 99 26 00 00 	mov    rax,QWORD PTR [rip+0x2699]        # 404fe0 <stderr@GLIBC_2.2.5>
  402947:	48 8b 38             	mov    rdi,QWORD PTR [rax]
  40294a:	48 8d 35 b3 06 00 00 	lea    rsi,[rip+0x6b3]        # 403004 <_IO_stdin_used@@Base+0x4>
  402951:	48 8d 15 ce 06 00 00 	lea    rdx,[rip+0x6ce]        # 403026 <_IO_stdin_used@@Base+0x26>
  402958:	4c 8d 05 a2 07 00 00 	lea    r8,[rip+0x7a2]        # 403101 <_IO_stdin_used@@Base+0x101>
  40295f:	b9 a1 00 00 00       	mov    ecx,0xa1
  402964:	31 c0                	xor    eax,eax
  402966:	e8 65 f7 ff ff       	call   4020d0 <fprintf@plt>
  40296b:	e8 d0 f6 ff ff       	call   402040 <abort@plt>

0000000000402970 <__get_unsafe_stack_bottom@@Base>:
  402970:	f3 0f 1e fa          	endbr64
  402974:	50                   	push   rax
  402975:	66 66 66 64 48 8b 04 	data16 data16 data16 mov rax,QWORD PTR fs:0x0
  40297c:	25 00 00 00 00 
  402981:	48 8b 80 e8 ff ff ff 	mov    rax,QWORD PTR [rax-0x18]
  402988:	59                   	pop    rcx
  402989:	c3                   	ret
  40298a:	66 0f 1f 44 00 00    	nop    WORD PTR [rax+rax*1+0x0]

0000000000402990 <__get_unsafe_stack_top@@Base>:
  402990:	f3 0f 1e fa          	endbr64
  402994:	50                   	push   rax
  402995:	66 66 66 64 48 8b 04 	data16 data16 data16 mov rax,QWORD PTR fs:0x0
  40299c:	25 00 00 00 00 
  4029a1:	48 8b 88 e8 ff ff ff 	mov    rcx,QWORD PTR [rax-0x18]
  4029a8:	48 03 88 f0 ff ff ff 	add    rcx,QWORD PTR [rax-0x10]
  4029af:	48 89 c8             	mov    rax,rcx
  4029b2:	59                   	pop    rcx
  4029b3:	c3                   	ret
  4029b4:	66 2e 0f 1f 84 00 00 	cs nop WORD PTR [rax+rax*1+0x0]
  4029bb:	00 00 00 
  4029be:	66 90                	xchg   ax,ax

00000000004029c0 <__get_unsafe_stack_start@@Base>:
  4029c0:	f3 0f 1e fa          	endbr64
  4029c4:	50                   	push   rax
  4029c5:	66 66 66 64 48 8b 04 	data16 data16 data16 mov rax,QWORD PTR fs:0x0
  4029cc:	25 00 00 00 00 
  4029d1:	48 8b 80 e8 ff ff ff 	mov    rax,QWORD PTR [rax-0x18]
  4029d8:	59                   	pop    rcx
  4029d9:	c3                   	ret
  4029da:	66 0f 1f 44 00 00    	nop    WORD PTR [rax+rax*1+0x0]

00000000004029e0 <__get_unsafe_stack_ptr@@Base>:
  4029e0:	f3 0f 1e fa          	endbr64
  4029e4:	50                   	push   rax
  4029e5:	64 48 8b 04 25 00 00 	mov    rax,QWORD PTR fs:0x0
  4029ec:	00 00 
  4029ee:	48 03 05 d3 25 00 00 	add    rax,QWORD PTR [rip+0x25d3]        # 404fc8 <__safestack_unsafe_stack_ptr@@Base+0x404fc8>
  4029f5:	48 8b 00             	mov    rax,QWORD PTR [rax]
  4029f8:	59                   	pop    rcx
  4029f9:	c3                   	ret
  4029fa:	66 90                	xchg   ax,ax
  4029fc:	0f 1f 40 00          	nop    DWORD PTR [rax+0x0]
  402a00:	f3 0f 1e fa          	endbr64
  402a04:	41 57                	push   r15
  402a06:	41 56                	push   r14
  402a08:	41 55                	push   r13
  402a0a:	41 54                	push   r12
  402a0c:	53                   	push   rbx
  402a0d:	48 89 cb             	mov    rbx,rcx
  402a10:	49 89 d6             	mov    r14,rdx
  402a13:	49 89 f7             	mov    r15,rsi
  402a16:	49 89 fc             	mov    r12,rdi
  402a19:	48 c7 c7 ff ff ff ff 	mov    rdi,0xffffffffffffffff
  402a20:	4c 89 e6             	mov    rsi,r12
  402a23:	e8 18 f7 ff ff       	call   402140 <dlsym@plt>
  402a28:	48 85 c0             	test   rax,rax
  402a2b:	75 14                	jne    402a41 <__get_unsafe_stack_ptr@@Base+0x61>
  402a2d:	45 31 ed             	xor    r13d,r13d
  402a30:	31 ff                	xor    edi,edi
  402a32:	4c 89 e6             	mov    rsi,r12
  402a35:	e8 06 f7 ff ff       	call   402140 <dlsym@plt>
  402a3a:	48 39 d8             	cmp    rax,rbx
  402a3d:	49 0f 44 c5          	cmove  rax,r13
  402a41:	49 89 07             	mov    QWORD PTR [r15],rax
  402a44:	48 85 c0             	test   rax,rax
  402a47:	0f 95 c1             	setne  cl
  402a4a:	49 39 de             	cmp    r14,rbx
  402a4d:	0f 94 c0             	sete   al
  402a50:	20 c8                	and    al,cl
  402a52:	5b                   	pop    rbx
  402a53:	41 5c                	pop    r12
  402a55:	41 5d                	pop    r13
  402a57:	41 5e                	pop    r14
  402a59:	41 5f                	pop    r15
  402a5b:	c3                   	ret
  402a5c:	0f 1f 40 00          	nop    DWORD PTR [rax+0x0]
  402a60:	f3 0f 1e fa          	endbr64
  402a64:	41 57                	push   r15
  402a66:	41 56                	push   r14
  402a68:	53                   	push   rbx
  402a69:	4c 89 c3             	mov    rbx,r8
  402a6c:	49 89 ce             	mov    r14,rcx
  402a6f:	49 89 d7             	mov    r15,rdx
  402a72:	48 89 f2             	mov    rdx,rsi
  402a75:	48 89 fe             	mov    rsi,rdi
  402a78:	48 c7 c7 ff ff ff ff 	mov    rdi,0xffffffffffffffff
  402a7f:	e8 ec f6 ff ff       	call   402170 <dlvsym@plt>
  402a84:	49 89 07             	mov    QWORD PTR [r15],rax
  402a87:	48 85 c0             	test   rax,rax
  402a8a:	0f 95 c1             	setne  cl
  402a8d:	49 39 de             	cmp    r14,rbx
  402a90:	0f 94 c0             	sete   al
  402a93:	20 c8                	and    al,cl
  402a95:	5b                   	pop    rbx
  402a96:	41 5e                	pop    r14
  402a98:	41 5f                	pop    r15
  402a9a:	c3                   	ret
  402a9b:	0f 1f 44 00 00       	nop    DWORD PTR [rax+rax*1+0x0]

0000000000402aa0 <g_arg2setyy@@Base>:
  402aa0:	b8 01 00 00 00       	mov    eax,0x1
  402aa5:	c3                   	ret
  402aa6:	66 2e 0f 1f 84 00 00 	cs nop WORD PTR [rax+rax*1+0x0]
  402aad:	00 00 00 

0000000000402ab0 <g_arg2setxx@@Base>:
  402ab0:	31 c0                	xor    eax,eax
  402ab2:	c3                   	ret
  402ab3:	66 66 66 66 2e 0f 1f 	data16 data16 data16 cs nop WORD PTR [rax+rax*1+0x0]
  402aba:	84 00 00 00 00 00 

0000000000402ac0 <g_yyret@@Base>:
  402ac0:	b8 34 00 00 00       	mov    eax,0x34
  402ac5:	c3                   	ret
  402ac6:	66 2e 0f 1f 84 00 00 	cs nop WORD PTR [rax+rax*1+0x0]
  402acd:	00 00 00 

0000000000402ad0 <g_xxret@@Base>:
  402ad0:	b8 35 00 00 00       	mov    eax,0x35
  402ad5:	c3                   	ret
  402ad6:	66 2e 0f 1f 84 00 00 	cs nop WORD PTR [rax+rax*1+0x0]
  402add:	00 00 00 

0000000000402ae0 <g_z1@@Base>:
  402ae0:	31 c0                	xor    eax,eax
  402ae2:	c3                   	ret
  402ae3:	66 66 66 66 2e 0f 1f 	data16 data16 data16 cs nop WORD PTR [rax+rax*1+0x0]
  402aea:	84 00 00 00 00 00 

0000000000402af0 <g_rax2rsi@@Base>:
  402af0:	48 89 c6             	mov    rsi,rax
  402af3:	c3                   	ret
  402af4:	66 66 66 2e 0f 1f 84 	data16 data16 cs nop WORD PTR [rax+rax*1+0x0]
  402afb:	00 00 00 00 00 

0000000000402b00 <g_rax2rdi@@Base>:
  402b00:	48 89 c7             	mov    rdi,rax
  402b03:	c3                   	ret
  402b04:	66 66 66 2e 0f 1f 84 	data16 data16 cs nop WORD PTR [rax+rax*1+0x0]
  402b0b:	00 00 00 00 00 

0000000000402b10 <g_sh@@Base>:
  402b10:	48 8b 05 b9 25 00 00 	mov    rax,QWORD PTR [rip+0x25b9]        # 4050d0 <binsh@@Base>
  402b17:	c3                   	ret
  402b18:	0f 1f 84 00 00 00 00 	nop    DWORD PTR [rax+rax*1+0x0]
  402b1f:	00 

0000000000402b20 <g_sh2@@Base>:
  402b20:	48 8b 05 a9 25 00 00 	mov    rax,QWORD PTR [rip+0x25a9]        # 4050d0 <binsh@@Base>
  402b27:	c3                   	ret
  402b28:	0f 1f 84 00 00 00 00 	nop    DWORD PTR [rax+rax*1+0x0]
  402b2f:	00 

0000000000402b30 <g_sh3@@Base>:
  402b30:	48 8b 05 99 25 00 00 	mov    rax,QWORD PTR [rip+0x2599]        # 4050d0 <binsh@@Base>
  402b37:	c3                   	ret
  402b38:	0f 1f 84 00 00 00 00 	nop    DWORD PTR [rax+rax*1+0x0]
  402b3f:	00 

0000000000402b40 <g_rax2rdx@@Base>:
  402b40:	48 89 c2             	mov    rdx,rax
  402b43:	c3                   	ret
  402b44:	66 66 66 2e 0f 1f 84 	data16 data16 cs nop WORD PTR [rax+rax*1+0x0]
  402b4b:	00 00 00 00 00 

0000000000402b50 <g_rsi2rax@@Base>:
  402b50:	48 89 f0             	mov    rax,rsi
  402b53:	c3                   	ret
  402b54:	66 66 66 2e 0f 1f 84 	data16 data16 cs nop WORD PTR [rax+rax*1+0x0]
  402b5b:	00 00 00 00 00 

0000000000402b60 <g_rdi2rax@@Base>:
  402b60:	48 89 f8             	mov    rax,rdi
  402b63:	c3                   	ret
  402b64:	66 66 66 2e 0f 1f 84 	data16 data16 cs nop WORD PTR [rax+rax*1+0x0]
  402b6b:	00 00 00 00 00 

0000000000402b70 <g_rdx2rax@@Base>:
  402b70:	48 89 d0             	mov    rax,rdx
  402b73:	c3                   	ret
  402b74:	66 66 66 2e 0f 1f 84 	data16 data16 cs nop WORD PTR [rax+rax*1+0x0]
  402b7b:	00 00 00 00 00 

0000000000402b80 <g_z2@@Base>:
  402b80:	48 31 f6             	xor    rsi,rsi
  402b83:	c3                   	ret
  402b84:	66 66 66 2e 0f 1f 84 	data16 data16 cs nop WORD PTR [rax+rax*1+0x0]
  402b8b:	00 00 00 00 00 

0000000000402b90 <g_z3@@Base>:
  402b90:	48 31 c0             	xor    rax,rax
  402b93:	c3                   	ret
  402b94:	66 66 66 2e 0f 1f 84 	data16 data16 cs nop WORD PTR [rax+rax*1+0x0]
  402b9b:	00 00 00 00 00 

0000000000402ba0 <g_inc8@@Base>:
  402ba0:	48 83 c0 08          	add    rax,0x8
  402ba4:	c3                   	ret
  402ba5:	66 66 2e 0f 1f 84 00 	data16 cs nop WORD PTR [rax+rax*1+0x0]
  402bac:	00 00 00 00 

0000000000402bb0 <g_inc32@@Base>:
  402bb0:	48 83 c0 20          	add    rax,0x20
  402bb4:	c3                   	ret
  402bb5:	66 66 2e 0f 1f 84 00 	data16 cs nop WORD PTR [rax+rax*1+0x0]
  402bbc:	00 00 00 00 

0000000000402bc0 <g_inc58@@Base>:
  402bc0:	48 83 c0 3a          	add    rax,0x3a
  402bc4:	c3                   	ret
  402bc5:	66 66 2e 0f 1f 84 00 	data16 cs nop WORD PTR [rax+rax*1+0x0]
  402bcc:	00 00 00 00 

0000000000402bd0 <g_inc59@@Base>:
  402bd0:	48 83 c0 3b          	add    rax,0x3b
  402bd4:	c3                   	ret
  402bd5:	66 66 2e 0f 1f 84 00 	data16 cs nop WORD PTR [rax+rax*1+0x0]
  402bdc:	00 00 00 00 

0000000000402be0 <g_inc@@Base>:
  402be0:	48 83 c0 01          	add    rax,0x1
  402be4:	c3                   	ret
  402be5:	66 66 2e 0f 1f 84 00 	data16 cs nop WORD PTR [rax+rax*1+0x0]
  402bec:	00 00 00 00 

0000000000402bf0 <g_z5@@Base>:
  402bf0:	48 c7 c2 00 00 00 00 	mov    rdx,0x0
  402bf7:	c3                   	ret
  402bf8:	0f 1f 84 00 00 00 00 	nop    DWORD PTR [rax+rax*1+0x0]
  402bff:	00 

0000000000402c00 <g_poprdx@@Base>:
  402c00:	48 c7 c2 00 00 00 00 	mov    rdx,0x0
  402c07:	52                   	push   rdx
  402c08:	5a                   	pop    rdx
  402c09:	c3                   	ret
  402c0a:	66 0f 1f 44 00 00    	nop    WORD PTR [rax+rax*1+0x0]

0000000000402c10 <gaddyy@@Base>:
  402c10:	48 8d 47 02          	lea    rax,[rdi+0x2]
  402c14:	c3                   	ret
  402c15:	66 66 2e 0f 1f 84 00 	data16 cs nop WORD PTR [rax+rax*1+0x0]
  402c1c:	00 00 00 00 

0000000000402c20 <gaddxx@@Base>:
  402c20:	48 8d 47 01          	lea    rax,[rdi+0x1]
  402c24:	c3                   	ret
  402c25:	66 66 2e 0f 1f 84 00 	data16 cs nop WORD PTR [rax+rax*1+0x0]
  402c2c:	00 00 00 00 

0000000000402c30 <gaddxy@@Base>:
  402c30:	48 8d 04 37          	lea    rax,[rdi+rsi*1]
  402c34:	c3                   	ret
  402c35:	66 66 2e 0f 1f 84 00 	data16 cs nop WORD PTR [rax+rax*1+0x0]
  402c3c:	00 00 00 00 

0000000000402c40 <gaddxyz@@Base>:
  402c40:	48 8d 04 37          	lea    rax,[rdi+rsi*1]
  402c44:	48 01 d0             	add    rax,rdx
  402c47:	c3                   	ret
  402c48:	0f 1f 84 00 00 00 00 	nop    DWORD PTR [rax+rax*1+0x0]
  402c4f:	00 

0000000000402c50 <g_s1@@Base>:
  402c50:	48 8b 36             	mov    rsi,QWORD PTR [rsi]
  402c53:	31 c0                	xor    eax,eax
  402c55:	e9 86 f4 ff ff       	jmp    4020e0 <syscall@plt>
  402c5a:	66 0f 1f 44 00 00    	nop    WORD PTR [rax+rax*1+0x0]

0000000000402c60 <g_syscall@@Base>:
  402c60:	48 89 f8             	mov    rax,rdi
  402c63:	48 31 f6             	xor    rsi,rsi
  402c66:	48 31 f6             	xor    rsi,rsi
  402c69:	48 31 d2             	xor    rdx,rdx
  402c6c:	0f 05                	syscall
  402c6e:	31 c0                	xor    eax,eax
  402c70:	c3                   	ret
  402c71:	66 66 66 66 66 66 2e 	data16 data16 data16 data16 data16 cs nop WORD PTR [rax+rax*1+0x0]
  402c78:	0f 1f 84 00 00 00 00 
  402c7f:	00 

0000000000402c80 <g_syscall2@@Base>:
  402c80:	48 89 f8             	mov    rax,rdi
  402c83:	48 89 f7             	mov    rdi,rsi
  402c86:	48 31 f6             	xor    rsi,rsi
  402c89:	48 31 d2             	xor    rdx,rdx
  402c8c:	0f 05                	syscall
  402c8e:	31 c0                	xor    eax,eax
  402c90:	c3                   	ret
  402c91:	66 66 66 66 66 66 2e 	data16 data16 data16 data16 data16 cs nop WORD PTR [rax+rax*1+0x0]
  402c98:	0f 1f 84 00 00 00 00 
  402c9f:	00 

0000000000402ca0 <g_s2@@Base>:
  402ca0:	48 8b 06             	mov    rax,QWORD PTR [rsi]
  402ca3:	48 8b 56 08          	mov    rdx,QWORD PTR [rsi+0x8]
  402ca7:	48 89 c6             	mov    rsi,rax
  402caa:	31 c0                	xor    eax,eax
  402cac:	e9 2f f4 ff ff       	jmp    4020e0 <syscall@plt>
  402cb1:	66 66 66 66 66 66 2e 	data16 data16 data16 data16 data16 cs nop WORD PTR [rax+rax*1+0x0]
  402cb8:	0f 1f 84 00 00 00 00 
  402cbf:	00 

0000000000402cc0 <g_s3@@Base>:
  402cc0:	48 8b 06             	mov    rax,QWORD PTR [rsi]
  402cc3:	48 8b 56 08          	mov    rdx,QWORD PTR [rsi+0x8]
  402cc7:	48 8b 4e 10          	mov    rcx,QWORD PTR [rsi+0x10]
  402ccb:	48 89 c6             	mov    rsi,rax
  402cce:	31 c0                	xor    eax,eax
  402cd0:	e9 0b f4 ff ff       	jmp    4020e0 <syscall@plt>
  402cd5:	66 66 2e 0f 1f 84 00 	data16 cs nop WORD PTR [rax+rax*1+0x0]
  402cdc:	00 00 00 00 

0000000000402ce0 <g_s4@@Base>:
  402ce0:	48 8b 06             	mov    rax,QWORD PTR [rsi]
  402ce3:	48 8b 56 08          	mov    rdx,QWORD PTR [rsi+0x8]
  402ce7:	48 8b 4e 18          	mov    rcx,QWORD PTR [rsi+0x18]
  402ceb:	4c 8b 46 20          	mov    r8,QWORD PTR [rsi+0x20]
  402cef:	48 89 c6             	mov    rsi,rax
  402cf2:	31 c0                	xor    eax,eax
  402cf4:	e9 e7 f3 ff ff       	jmp    4020e0 <syscall@plt>
  402cf9:	0f 1f 80 00 00 00 00 	nop    DWORD PTR [rax+0x0]

0000000000402d00 <g_subxy@@Base>:
  402d00:	48 89 f8             	mov    rax,rdi
  402d03:	48 29 f0             	sub    rax,rsi
  402d06:	c3                   	ret
  402d07:	66 0f 1f 84 00 00 00 	nop    WORD PTR [rax+rax*1+0x0]
  402d0e:	00 00 

0000000000402d10 <g_subyx@@Base>:
  402d10:	48 89 f0             	mov    rax,rsi
  402d13:	48 29 f8             	sub    rax,rdi
  402d16:	c3                   	ret
  402d17:	66 0f 1f 84 00 00 00 	nop    WORD PTR [rax+rax*1+0x0]
  402d1e:	00 00 

0000000000402d20 <g_st@@Base>:
  402d20:	48 89 37             	mov    QWORD PTR [rdi],rsi
  402d23:	31 c0                	xor    eax,eax
  402d25:	c3                   	ret
  402d26:	66 2e 0f 1f 84 00 00 	cs nop WORD PTR [rax+rax*1+0x0]
  402d2d:	00 00 00 

0000000000402d30 <g_st2@@Base>:
  402d30:	48 89 3e             	mov    QWORD PTR [rsi],rdi
  402d33:	31 c0                	xor    eax,eax
  402d35:	c3                   	ret
  402d36:	66 2e 0f 1f 84 00 00 	cs nop WORD PTR [rax+rax*1+0x0]
  402d3d:	00 00 00 

0000000000402d40 <g_st3@@Base>:
  402d40:	48 89 f8             	mov    rax,rdi
  402d43:	48 89 36             	mov    QWORD PTR [rsi],rsi
  402d46:	c3                   	ret
  402d47:	66 0f 1f 84 00 00 00 	nop    WORD PTR [rax+rax*1+0x0]
  402d4e:	00 00 

0000000000402d50 <g_st4@@Base>:
  402d50:	48 89 f0             	mov    rax,rsi
  402d53:	48 89 3f             	mov    QWORD PTR [rdi],rdi
  402d56:	c3                   	ret
  402d57:	66 0f 1f 84 00 00 00 	nop    WORD PTR [rax+rax*1+0x0]
  402d5e:	00 00 

0000000000402d60 <g_st5@@Base>:
  402d60:	48 89 f0             	mov    rax,rsi
  402d63:	48 89 3f             	mov    QWORD PTR [rdi],rdi
  402d66:	c3                   	ret
  402d67:	66 0f 1f 84 00 00 00 	nop    WORD PTR [rax+rax*1+0x0]
  402d6e:	00 00 

0000000000402d70 <g_ld@@Base>:
  402d70:	48 8b 07             	mov    rax,QWORD PTR [rdi]
  402d73:	c3                   	ret
  402d74:	66 66 66 2e 0f 1f 84 	data16 data16 cs nop WORD PTR [rax+rax*1+0x0]
  402d7b:	00 00 00 00 00 

0000000000402d80 <g_ld2@@Base>:
  402d80:	48 8b 06             	mov    rax,QWORD PTR [rsi]
  402d83:	c3                   	ret
  402d84:	66 66 66 2e 0f 1f 84 	data16 data16 cs nop WORD PTR [rax+rax*1+0x0]
  402d8b:	00 00 00 00 00 

0000000000402d90 <g3@@Base>:
  402d90:	48 89 f8             	mov    rax,rdi
  402d93:	48 89 f7             	mov    rdi,rsi
  402d96:	ff e0                	jmp    rax
  402d98:	0f 1f 84 00 00 00 00 	nop    DWORD PTR [rax+rax*1+0x0]
  402d9f:	00 

0000000000402da0 <g4@@Base>:
  402da0:	ff e6                	jmp    rsi
  402da2:	66 66 66 66 66 2e 0f 	data16 data16 data16 data16 cs nop WORD PTR [rax+rax*1+0x0]
  402da9:	1f 84 00 00 00 00 00 

0000000000402db0 <g_icall2@@Base>:
  402db0:	ff e7                	jmp    rdi
  402db2:	66 66 66 66 66 2e 0f 	data16 data16 data16 data16 cs nop WORD PTR [rax+rax*1+0x0]
  402db9:	1f 84 00 00 00 00 00 

0000000000402dc0 <g_leak1@@Base>:
  402dc0:	48 8d 05 49 fe ff ff 	lea    rax,[rip+0xfffffffffffffe49]        # 402c10 <gaddyy@@Base>
  402dc7:	48 25 00 f0 ff ff    	and    rax,0xfffffffffffff000
  402dcd:	c3                   	ret
  402dce:	66 90                	xchg   ax,ax

0000000000402dd0 <g_printf@@Base>:
  402dd0:	50                   	push   rax
  402dd1:	48 89 fe             	mov    rsi,rdi
  402dd4:	48 8d 3d 4c 03 00 00 	lea    rdi,[rip+0x34c]        # 403127 <_IO_stdin_used@@Base+0x127>
  402ddb:	31 c0                	xor    eax,eax
  402ddd:	e8 9e f2 ff ff       	call   402080 <printf@plt>
  402de2:	31 c0                	xor    eax,eax
  402de4:	59                   	pop    rcx
  402de5:	c3                   	ret
  402de6:	66 2e 0f 1f 84 00 00 	cs nop WORD PTR [rax+rax*1+0x0]
  402ded:	00 00 00 

0000000000402df0 <vuln_leak@@Base>:
  402df0:	41 56                	push   r14
  402df2:	53                   	push   rbx
  402df3:	50                   	push   rax
  402df4:	48 89 fb             	mov    rbx,rdi
  402df7:	4c 8d 35 2c 03 00 00 	lea    r14,[rip+0x32c]        # 40312a <_IO_stdin_used@@Base+0x12a>
  402dfe:	48 8d 35 eb ff ff ff 	lea    rsi,[rip+0xffffffffffffffeb]        # 402df0 <vuln_leak@@Base>
  402e05:	4c 89 f7             	mov    rdi,r14
  402e08:	31 c0                	xor    eax,eax
  402e0a:	e8 71 f2 ff ff       	call   402080 <printf@plt>
  402e0f:	4c 89 f7             	mov    rdi,r14
  402e12:	48 89 de             	mov    rsi,rbx
  402e15:	31 c0                	xor    eax,eax
  402e17:	48 83 c4 08          	add    rsp,0x8
  402e1b:	5b                   	pop    rbx
  402e1c:	41 5e                	pop    r14
  402e1e:	e9 5d f2 ff ff       	jmp    402080 <printf@plt>
  402e23:	66 66 66 66 2e 0f 1f 	data16 data16 data16 cs nop WORD PTR [rax+rax*1+0x0]
  402e2a:	84 00 00 00 00 00 

0000000000402e30 <vuln_overflow@@Base>:
  402e30:	41 57                	push   r15
  402e32:	41 56                	push   r14
  402e34:	53                   	push   rbx
  402e35:	4c 8b 35 8c 21 00 00 	mov    r14,QWORD PTR [rip+0x218c]        # 404fc8 <__safestack_unsafe_stack_ptr@@Base+0x404fc8>
  402e3c:	64 4d 8b 3e          	mov    r15,QWORD PTR fs:[r14]
  402e40:	49 8d 87 f0 fe ff ff 	lea    rax,[r15-0x110]
  402e47:	64 49 89 06          	mov    QWORD PTR fs:[r14],rax
  402e4b:	48 8d 3d 07 03 00 00 	lea    rdi,[rip+0x307]        # 403159 <_IO_stdin_used@@Base+0x159>
  402e52:	e8 09 f2 ff ff       	call   402060 <puts@plt>
  402e57:	49 8d 9f f8 fe ff ff 	lea    rbx,[r15-0x108]
  402e5e:	48 89 df             	mov    rdi,rbx
  402e61:	e8 9a f2 ff ff       	call   402100 <gets@plt>
  402e66:	48 89 df             	mov    rdi,rbx
  402e69:	31 f6                	xor    esi,esi
  402e6b:	ba 0a 00 00 00       	mov    edx,0xa
  402e70:	e8 7b f2 ff ff       	call   4020f0 <strtol@plt>
  402e75:	48 89 c3             	mov    rbx,rax
  402e78:	48 8d 3d e4 02 00 00 	lea    rdi,[rip+0x2e4]        # 403163 <_IO_stdin_used@@Base+0x163>
  402e7f:	e8 dc f1 ff ff       	call   402060 <puts@plt>
  402e84:	48 63 c3             	movsxd rax,ebx
  402e87:	48 c1 e0 04          	shl    rax,0x4
  402e8b:	49 8d 3c 07          	lea    rdi,[r15+rax*1]
  402e8f:	48 81 c7 00 ff ff ff 	add    rdi,0xffffffffffffff00
  402e96:	e8 65 f2 ff ff       	call   402100 <gets@plt>
  402e9b:	64 4d 89 3e          	mov    QWORD PTR fs:[r14],r15
  402e9f:	5b                   	pop    rbx
  402ea0:	41 5e                	pop    r14
  402ea2:	41 5f                	pop    r15
  402ea4:	c3                   	ret
  402ea5:	66 66 2e 0f 1f 84 00 	data16 cs nop WORD PTR [rax+rax*1+0x0]
  402eac:	00 00 00 00 

0000000000402eb0 <main@@Base>:
  402eb0:	41 57                	push   r15
  402eb2:	41 56                	push   r14
  402eb4:	41 54                	push   r12
  402eb6:	53                   	push   rbx
  402eb7:	50                   	push   rax
  402eb8:	4c 8b 35 09 21 00 00 	mov    r14,QWORD PTR [rip+0x2109]        # 404fc8 <__safestack_unsafe_stack_ptr@@Base+0x404fc8>
  402ebf:	64 4d 8b 3e          	mov    r15,QWORD PTR fs:[r14]
  402ec3:	49 8d 9f 00 fc ff ff 	lea    rbx,[r15-0x400]
  402eca:	64 49 89 1e          	mov    QWORD PTR fs:[r14],rbx
  402ece:	45 31 e4             	xor    r12d,r12d
  402ed1:	ba 00 04 00 00       	mov    edx,0x400
  402ed6:	48 89 df             	mov    rdi,rbx
  402ed9:	31 f6                	xor    esi,esi
  402edb:	e8 c0 f1 ff ff       	call   4020a0 <memset@plt>
  402ee0:	48 89 df             	mov    rdi,rbx
  402ee3:	e8 08 ff ff ff       	call   402df0 <vuln_leak@@Base>
  402ee8:	e8 43 ff ff ff       	call   402e30 <vuln_overflow@@Base>
  402eed:	31 ff                	xor    edi,edi
  402eef:	31 db                	xor    ebx,ebx
  402ef1:	eb 19                	jmp    402f0c <main@@Base+0x5c>
  402ef3:	66 66 66 66 2e 0f 1f 	data16 data16 data16 cs nop WORD PTR [rax+rax*1+0x0]
  402efa:	84 00 00 00 00 00 
  402f00:	49 ff c4             	inc    r12
  402f03:	49 81 fc 80 00 00 00 	cmp    r12,0x80
  402f0a:	74 1e                	je     402f2a <main@@Base+0x7a>
  402f0c:	4b 83 bc e7 00 fc ff 	cmp    QWORD PTR [r15+r12*8-0x400],0x0
  402f13:	ff 00 
  402f15:	74 e9                	je     402f00 <main@@Base+0x50>
  402f17:	48 89 de             	mov    rsi,rbx
  402f1a:	43 ff 94 e7 00 fc ff 	call   QWORD PTR [r15+r12*8-0x400]
  402f21:	ff 
  402f22:	48 89 df             	mov    rdi,rbx
  402f25:	48 89 c3             	mov    rbx,rax
  402f28:	eb d6                	jmp    402f00 <main@@Base+0x50>
  402f2a:	48 8d 3d fd 01 00 00 	lea    rdi,[rip+0x1fd]        # 40312e <_IO_stdin_used@@Base+0x12e>
  402f31:	e8 9a fe ff ff       	call   402dd0 <g_printf@@Base>
  402f36:	64 4d 89 3e          	mov    QWORD PTR fs:[r14],r15
  402f3a:	31 c0                	xor    eax,eax
  402f3c:	48 83 c4 08          	add    rsp,0x8
  402f40:	5b                   	pop    rbx
  402f41:	41 5c                	pop    r12
  402f43:	41 5e                	pop    r14
  402f45:	41 5f                	pop    r15
  402f47:	c3                   	ret

Disassembly of section .fini:

0000000000402f48 <.fini>:
  402f48:	f3 0f 1e fa          	endbr64
  402f4c:	48 83 ec 08          	sub    rsp,0x8
  402f50:	48 83 c4 08          	add    rsp,0x8
  402f54:	c3                   	ret
