Script started on 2025-05-28 04:20:22+09:00 [COMMAND="objdump -M intel -d --visualize-jumps ./exploitme-safestack" TERM="xterm-256color" TTY="/dev/pts/4" COLUMNS="125" LINES="22"]

./exploitme-safestack:     file format elf64-x86-64


Disassembly of section .init:

0000000000402000 <.init>:
  402000:	f3 0f 1e fa          	endbr64
  402004:	48 83 ec 08          	sub    rsp,0x8
  402008:	48 8b 05 c9 2f 00 00 	mov    rax,QWORD PTR [rip+0x2fc9]        # 404fd8 <__gmon_start__@Base>
  40200f:	48 85 c0             	test   rax,rax
  402012:	74 02                	je     402016 <__safestack_unsafe_stack_ptr@@Base+0x402016>
  402014:	ff d0                	call   rax
  402016:	48 83 c4 08          	add    rsp,0x8
  40201a:	c3                   	ret

Disassembly of section .plt:

0000000000402020 <free@plt-0x10>:
  402020:	ff 35 ca 2f 00 00    	push   QWORD PTR [rip+0x2fca]        # 404ff0 <_IO_stdin_used@@Base+0x1ff0>
  402026:	ff 25 cc 2f 00 00    	jmp    QWORD PTR [rip+0x2fcc]        # 404ff8 <_IO_stdin_used@@Base+0x1ff8>
  40202c:	0f 1f 40 00          	nop    DWORD PTR [rax+0x0]

0000000000402030 <free@plt>:
  402030:	ff 25 ca 2f 00 00    	jmp    QWORD PTR [rip+0x2fca]        # 405000 <free@GLIBC_2.2.5>
  402036:	68 00 00 00 00       	push   0x0
  40203b:	e9 e0 ff ff ff       	jmp    402020 <__safestack_unsafe_stack_ptr@@Base+0x402020>

0000000000402040 <abort@plt>:
  402040:	ff 25 c2 2f 00 00    	jmp    QWORD PTR [rip+0x2fc2]        # 405008 <abort@GLIBC_2.2.5>
  402046:	68 01 00 00 00       	push   0x1
  40204b:	e9 d0 ff ff ff       	jmp    402020 <__safestack_unsafe_stack_ptr@@Base+0x402020>

0000000000402050 <__errno_location@plt>:
  402050:	ff 25 ba 2f 00 00    	jmp    QWORD PTR [rip+0x2fba]        # 405010 <__errno_location@GLIBC_2.2.5>
  402056:	68 02 00 00 00       	push   0x2
  40205b:	e9 c0 ff ff ff       	jmp    402020 <__safestack_unsafe_stack_ptr@@Base+0x402020>

0000000000402060 <puts@plt>:
  402060:	ff 25 b2 2f 00 00    	jmp    QWORD PTR [rip+0x2fb2]        # 405018 <puts@GLIBC_2.2.5>
  402066:	68 03 00 00 00       	push   0x3
  40206b:	e9 b0 ff ff ff       	jmp    402020 <__safestack_unsafe_stack_ptr@@Base+0x402020>

0000000000402070 <getpid@plt>:
  402070:	ff 25 aa 2f 00 00    	jmp    QWORD PTR [rip+0x2faa]        # 405020 <getpid@GLIBC_2.2.5>
  402076:	68 04 00 00 00       	push   0x4
  40207b:	e9 a0 ff ff ff       	jmp    402020 <__safestack_unsafe_stack_ptr@@Base+0x402020>

0000000000402080 <printf@plt>:
  402080:	ff 25 a2 2f 00 00    	jmp    QWORD PTR [rip+0x2fa2]        # 405028 <printf@GLIBC_2.2.5>
  402086:	68 05 00 00 00       	push   0x5
  40208b:	e9 90 ff ff ff       	jmp    402020 <__safestack_unsafe_stack_ptr@@Base+0x402020>

0000000000402090 <pthread_key_create@plt>:
  402090:	ff 25 9a 2f 00 00    	jmp    QWORD PTR [rip+0x2f9a]        # 405030 <pthread_key_create@GLIBC_2.34>
  402096:	68 06 00 00 00       	push   0x6
  40209b:	e9 80 ff ff ff       	jmp    402020 <__safestack_unsafe_stack_ptr@@Base+0x402020>

00000000004020a0 <memset@plt>:
  4020a0:	ff 25 92 2f 00 00    	jmp    QWORD PTR [rip+0x2f92]        # 405038 <memset@GLIBC_2.2.5>
  4020a6:	68 07 00 00 00       	push   0x7
  4020ab:	e9 70 ff ff ff       	jmp    402020 <__safestack_unsafe_stack_ptr@@Base+0x402020>

00000000004020b0 <pthread_attr_init@plt>:
  4020b0:	ff 25 8a 2f 00 00    	jmp    QWORD PTR [rip+0x2f8a]        # 405040 <pthread_attr_init@GLIBC_2.2.5>
  4020b6:	68 08 00 00 00       	push   0x8
  4020bb:	e9 60 ff ff ff       	jmp    402020 <__safestack_unsafe_stack_ptr@@Base+0x402020>

00000000004020c0 <__tls_get_addr@plt>:
  4020c0:	ff 25 82 2f 00 00    	jmp    QWORD PTR [rip+0x2f82]        # 405048 <__tls_get_addr@GLIBC_2.3>
  4020c6:	68 09 00 00 00       	push   0x9
  4020cb:	e9 50 ff ff ff       	jmp    402020 <__safestack_unsafe_stack_ptr@@Base+0x402020>

00000000004020d0 <fprintf@plt>:
  4020d0:	ff 25 7a 2f 00 00    	jmp    QWORD PTR [rip+0x2f7a]        # 405050 <fprintf@GLIBC_2.2.5>
  4020d6:	68 0a 00 00 00       	push   0xa
  4020db:	e9 40 ff ff ff       	jmp    402020 <__safestack_unsafe_stack_ptr@@Base+0x402020>

00000000004020e0 <syscall@plt>:
  4020e0:	ff 25 72 2f 00 00    	jmp    QWORD PTR [rip+0x2f72]        # 405058 <syscall@GLIBC_2.2.5>
  4020e6:	68 0b 00 00 00       	push   0xb
  4020eb:	e9 30 ff ff ff       	jmp    402020 <__safestack_unsafe_stack_ptr@@Base+0x402020>

00000000004020f0 <strtol@plt>:
  4020f0:	ff 25 6a 2f 00 00    	jmp    QWORD PTR [rip+0x2f6a]        # 405060 <strtol@GLIBC_2.2.5>
  4020f6:	68 0c 00 00 00       	push   0xc
  4020fb:	e9 20 ff ff ff       	jmp    402020 <__safestack_unsafe_stack_ptr@@Base+0x402020>

0000000000402100 <gets@plt>:
  402100:	ff 25 62 2f 00 00    	jmp    QWORD PTR [rip+0x2f62]        # 405068 <gets@GLIBC_2.2.5>
  402106:	68 0d 00 00 00       	push   0xd
  40210b:	e9 10 ff ff ff       	jmp    402020 <__safestack_unsafe_stack_ptr@@Base+0x402020>

0000000000402110 <pthread_attr_getguardsize@plt>:
  402110:	ff 25 5a 2f 00 00    	jmp    QWORD PTR [rip+0x2f5a]        # 405070 <pthread_attr_getguardsize@GLIBC_2.34>
  402116:	68 0e 00 00 00       	push   0xe
  40211b:	e9 00 ff ff ff       	jmp    402020 <__safestack_unsafe_stack_ptr@@Base+0x402020>

0000000000402120 <pthread_mutex_unlock@plt>:
  402120:	ff 25 52 2f 00 00    	jmp    QWORD PTR [rip+0x2f52]        # 405078 <pthread_mutex_unlock@GLIBC_2.2.5>
  402126:	68 0f 00 00 00       	push   0xf
  40212b:	e9 f0 fe ff ff       	jmp    402020 <__safestack_unsafe_stack_ptr@@Base+0x402020>

0000000000402130 <malloc@plt>:
  402130:	ff 25 4a 2f 00 00    	jmp    QWORD PTR [rip+0x2f4a]        # 405080 <malloc@GLIBC_2.2.5>
  402136:	68 10 00 00 00       	push   0x10
  40213b:	e9 e0 fe ff ff       	jmp    402020 <__safestack_unsafe_stack_ptr@@Base+0x402020>

0000000000402140 <dlsym@plt>:
  402140:	ff 25 42 2f 00 00    	jmp    QWORD PTR [rip+0x2f42]        # 405088 <dlsym@GLIBC_2.34>
  402146:	68 11 00 00 00       	push   0x11
  40214b:	e9 d0 fe ff ff       	jmp    402020 <__safestack_unsafe_stack_ptr@@Base+0x402020>

0000000000402150 <pthread_attr_destroy@plt>:
  402150:	ff 25 3a 2f 00 00    	jmp    QWORD PTR [rip+0x2f3a]        # 405090 <pthread_attr_destroy@GLIBC_2.2.5>
  402156:	68 12 00 00 00       	push   0x12
  40215b:	e9 c0 fe ff ff       	jmp    402020 <__safestack_unsafe_stack_ptr@@Base+0x402020>

0000000000402160 <getrlimit@plt>:
  402160:	ff 25 32 2f 00 00    	jmp    QWORD PTR [rip+0x2f32]        # 405098 <getrlimit@GLIBC_2.2.5>
  402166:	68 13 00 00 00       	push   0x13
  40216b:	e9 b0 fe ff ff       	jmp    402020 <__safestack_unsafe_stack_ptr@@Base+0x402020>

0000000000402170 <dlvsym@plt>:
  402170:	ff 25 2a 2f 00 00    	jmp    QWORD PTR [rip+0x2f2a]        # 4050a0 <dlvsym@GLIBC_2.34>
  402176:	68 14 00 00 00       	push   0x14
  40217b:	e9 a0 fe ff ff       	jmp    402020 <__safestack_unsafe_stack_ptr@@Base+0x402020>

0000000000402180 <pthread_mutex_lock@plt>:
  402180:	ff 25 22 2f 00 00    	jmp    QWORD PTR [rip+0x2f22]        # 4050a8 <pthread_mutex_lock@GLIBC_2.2.5>
  402186:	68 15 00 00 00       	push   0x15
  40218b:	e9 90 fe ff ff       	jmp    402020 <__safestack_unsafe_stack_ptr@@Base+0x402020>

0000000000402190 <pthread_attr_getstacksize@plt>:
  402190:	ff 25 1a 2f 00 00    	jmp    QWORD PTR [rip+0x2f1a]        # 4050b0 <pthread_attr_getstacksize@GLIBC_2.34>
  402196:	68 16 00 00 00       	push   0x16
  40219b:	e9 80 fe ff ff       	jmp    402020 <__safestack_unsafe_stack_ptr@@Base+0x402020>

00000000004021a0 <pthread_setspecific@plt>:
  4021a0:	ff 25 12 2f 00 00    	jmp    QWORD PTR [rip+0x2f12]        # 4050b8 <pthread_setspecific@GLIBC_2.34>
  4021a6:	68 17 00 00 00       	push   0x17
  4021ab:	e9 70 fe ff ff       	jmp    402020 <__safestack_unsafe_stack_ptr@@Base+0x402020>

Disassembly of section .text:

00000000004021b0 <_start@@Base>:
  4021b0:	          f3 0f 1e fa          	endbr64
  4021b4:	          31 ed                	xor    ebp,ebp
  4021b6:	          49 89 d1             	mov    r9,rdx
  4021b9:	          5e                   	pop    rsi
  4021ba:	          48 89 e2             	mov    rdx,rsp
  4021bd:	          48 83 e4 f0          	and    rsp,0xfffffffffffffff0
  4021c1:	          50                   	push   rax
  4021c2:	          54                   	push   rsp
  4021c3:	          45 31 c0             	xor    r8d,r8d
  4021c6:	          31 c9                	xor    ecx,ecx
  4021c8:	          48 c7 c7 b0 2e 40 00 	mov    rdi,0x402eb0
  4021cf:	          ff 15 fb 2d 00 00    	call   QWORD PTR [rip+0x2dfb]        # 404fd0 <__libc_start_main@GLIBC_2.34>
  4021d5:	          f4                   	hlt
  4021d6:	          66 2e 0f 1f 84 00 00 	cs nop WORD PTR [rax+rax*1+0x0]
  4021dd:	          00 00 00 
  4021e0:	          f3 0f 1e fa          	endbr64
  4021e4:	          c3                   	ret
  4021e5:	          66 2e 0f 1f 84 00 00 	cs nop WORD PTR [rax+rax*1+0x0]
  4021ec:	          00 00 00 
  4021ef:	          90                   	nop
  4021f0:	/-------> b8 10 51 40 00       	mov    eax,0x405110
  4021f5:	|         48 3d 10 51 40 00    	cmp    rax,0x405110
  4021fb:	|     /-- 74 13                	je     402210 <_start@@Base+0x60>
  4021fd:	|     |   b8 00 00 00 00       	mov    eax,0x0
  402202:	|     |   48 85 c0             	test   rax,rax
  402205:	|     +-- 74 09                	je     402210 <_start@@Base+0x60>
  402207:	|     |   bf 10 51 40 00       	mov    edi,0x405110
  40220c:	|     |   ff e0                	jmp    rax
  40220e:	|     |   66 90                	xchg   ax,ax
  402210:	|     \-> c3                   	ret
  402211:	|         66 66 2e 0f 1f 84 00 	data16 cs nop WORD PTR [rax+rax*1+0x0]
  402218:	|         00 00 00 00 
  40221c:	|         0f 1f 40 00          	nop    DWORD PTR [rax+0x0]
  402220:	|  /----> be 10 51 40 00       	mov    esi,0x405110
  402225:	|  |      48 81 ee 10 51 40 00 	sub    rsi,0x405110
  40222c:	|  |      48 89 f0             	mov    rax,rsi
  40222f:	|  |      48 c1 ee 3f          	shr    rsi,0x3f
  402233:	|  |      48 c1 f8 03          	sar    rax,0x3
  402237:	|  |      48 01 c6             	add    rsi,rax
  40223a:	|  |      48 d1 fe             	sar    rsi,1
  40223d:	|  |  /-- 74 11                	je     402250 <_start@@Base+0xa0>
  40223f:	|  |  |   b8 00 00 00 00       	mov    eax,0x0
  402244:	|  |  |   48 85 c0             	test   rax,rax
  402247:	|  |  +-- 74 07                	je     402250 <_start@@Base+0xa0>
  402249:	|  |  |   bf 10 51 40 00       	mov    edi,0x405110
  40224e:	|  |  |   ff e0                	jmp    rax
  402250:	|  |  \-> c3                   	ret
  402251:	|  |      66 66 2e 0f 1f 84 00 	data16 cs nop WORD PTR [rax+rax*1+0x0]
  402258:	|  |      00 00 00 00 
  40225c:	|  |      0f 1f 40 00          	nop    DWORD PTR [rax+0x0]
  402260:	|  |      f3 0f 1e fa          	endbr64
  402264:	|  |      80 3d a5 2e 00 00 00 	cmp    BYTE PTR [rip+0x2ea5],0x0        # 405110 <__bss_start@@Base>
  40226b:	|  |  /-- 75 13                	jne    402280 <_start@@Base+0xd0>
  40226d:	|  |  |   55                   	push   rbp
  40226e:	|  |  |   48 89 e5             	mov    rbp,rsp
  402271:	\--|--|-- e8 7a ff ff ff       	call   4021f0 <_start@@Base+0x40>
  402276:	   |  |   c6 05 93 2e 00 00 01 	mov    BYTE PTR [rip+0x2e93],0x1        # 405110 <__bss_start@@Base>
  40227d:	   |  |   5d                   	pop    rbp
  40227e:	   |  |   c3                   	ret
  40227f:	   |  |   90                   	nop
  402280:	   |  \-> c3                   	ret
  402281:	   |      66 66 2e 0f 1f 84 00 	data16 cs nop WORD PTR [rax+rax*1+0x0]
  402288:	   |      00 00 00 00 
  40228c:	   |      0f 1f 40 00          	nop    DWORD PTR [rax+0x0]
  402290:	   |      f3 0f 1e fa          	endbr64
  402294:	   \----- eb 8a                	jmp    402220 <_start@@Base+0x70>
  402296:	          66 90                	xchg   ax,ax

0000000000402298 <__interceptor_trampoline_pthread_create@@Base>:
  402298:	e9 03 00 00 00       	jmp    4022a0 <___interceptor_pthread_create@@Base>
  40229d:	0f 1f 00             	nop    DWORD PTR [rax]

00000000004022a0 <___interceptor_pthread_create@@Base>:
  4022a0:	                f3 0f 1e fa          	endbr64
  4022a4:	                55                   	push   rbp
  4022a5:	                41 57                	push   r15
  4022a7:	                41 56                	push   r14
  4022a9:	                41 55                	push   r13
  4022ab:	                41 54                	push   r12
  4022ad:	                53                   	push   rbx
  4022ae:	                48 83 ec 58          	sub    rsp,0x58
  4022b2:	                49 89 cf             	mov    r15,rcx
  4022b5:	                49 89 d4             	mov    r12,rdx
  4022b8:	                48 89 f3             	mov    rbx,rsi
  4022bb:	                49 89 fe             	mov    r14,rdi
  4022be:	                48 8d 3d 63 2e 00 00 	lea    rdi,[rip+0x2e63]        # 405128 <__bss_start@@Base+0x18>
  4022c5:	                e8 b6 fe ff ff       	call   402180 <pthread_mutex_lock@plt>
  4022ca:	                80 3d 7f 2e 00 00 00 	cmp    BYTE PTR [rip+0x2e7f],0x0        # 405150 <__bss_start@@Base+0x40>
  4022d1:	            /-- 75 28                	jne    4022fb <___interceptor_pthread_create@@Base+0x5b>
  4022d3:	            |   48 8d 3d 9c 0d 00 00 	lea    rdi,[rip+0xd9c]        # 403076 <_IO_stdin_used@@Base+0x76>
  4022da:	            |   48 8d 35 37 2e 00 00 	lea    rsi,[rip+0x2e37]        # 405118 <__bss_start@@Base+0x8>
  4022e1:	            |   48 c7 c2 98 22 40 00 	mov    rdx,0x402298
  4022e8:	            |   48 c7 c1 98 22 40 00 	mov    rcx,0x402298
  4022ef:	            |   e8 0c 07 00 00       	call   402a00 <__get_unsafe_stack_ptr@@Base+0x20>
  4022f4:	            |   c6 05 55 2e 00 00 01 	mov    BYTE PTR [rip+0x2e55],0x1        # 405150 <__bss_start@@Base+0x40>
  4022fb:	            \-> 48 8d 3d 26 2e 00 00 	lea    rdi,[rip+0x2e26]        # 405128 <__bss_start@@Base+0x18>
  402302:	                e8 19 fe ff ff       	call   402120 <pthread_mutex_unlock@plt>
  402307:	                48 c7 44 24 10 00 00 	mov    QWORD PTR [rsp+0x10],0x0
  40230e:	                00 00 
  402310:	                48 c7 44 24 18 00 00 	mov    QWORD PTR [rsp+0x18],0x0
  402317:	                00 00 
  402319:	                48 85 db             	test   rbx,rbx
  40231c:	            /-- 0f 84 db 00 00 00    	je     4023fd <___interceptor_pthread_create@@Base+0x15d>
  402322:	            |   48 8d 74 24 10       	lea    rsi,[rsp+0x10]
  402327:	            |   48 89 df             	mov    rdi,rbx
  40232a:	            |   e8 61 fe ff ff       	call   402190 <pthread_attr_getstacksize@plt>
  40232f:	            |   48 8d 74 24 18       	lea    rsi,[rsp+0x18]
  402334:	            |   48 89 df             	mov    rdi,rbx
  402337:	            |   e8 d4 fd ff ff       	call   402110 <pthread_attr_getguardsize@plt>
  40233c:	            |   48 8b 54 24 10       	mov    rdx,QWORD PTR [rsp+0x10]
  402341:	            |   48 85 d2             	test   rdx,rdx
  402344:	      /-----|-- 0f 84 f0 00 00 00    	je     40243a <___interceptor_pthread_create@@Base+0x19a>
  40234a:	      |  /--|-> 48 83 c2 0f          	add    rdx,0xf
  40234e:	      |  |  |   48 83 e2 f0          	and    rdx,0xfffffffffffffff0
  402352:	      |  |  |   48 89 54 24 10       	mov    QWORD PTR [rsp+0x10],rdx
  402357:	      |  |  |   4c 8b 6c 24 18       	mov    r13,QWORD PTR [rsp+0x18]
  40235c:	      |  |  |   4c 01 ea             	add    rdx,r13
  40235f:	/-----|--|--|-- 0f 82 05 01 00 00    	jb     40246a <___interceptor_pthread_create@@Base+0x1ca>
  402365:	|     |  |  |   48 c7 04 24 00 00 00 	mov    QWORD PTR [rsp],0x0
  40236c:	|     |  |  |   00 
  40236d:	|     |  |  |   bf 09 00 00 00       	mov    edi,0x9
  402372:	|     |  |  |   31 f6                	xor    esi,esi
  402374:	|     |  |  |   b9 03 00 00 00       	mov    ecx,0x3
  402379:	|     |  |  |   41 b8 22 00 00 00    	mov    r8d,0x22
  40237f:	|     |  |  |   41 b9 ff ff ff ff    	mov    r9d,0xffffffff
  402385:	|     |  |  |   31 c0                	xor    eax,eax
  402387:	|     |  |  |   e8 54 fd ff ff       	call   4020e0 <syscall@plt>
  40238c:	|     |  |  |   48 83 f8 ff          	cmp    rax,0xffffffffffffffff
  402390:	|  /--|--|--|-- 0f 84 04 01 00 00    	je     40249a <___interceptor_pthread_create@@Base+0x1fa>
  402396:	|  |  |  |  |   48 89 c5             	mov    rbp,rax
  402399:	|  |  |  |  |   bf 0a 00 00 00       	mov    edi,0xa
  40239e:	|  |  |  |  |   48 89 c6             	mov    rsi,rax
  4023a1:	|  |  |  |  |   4c 89 ea             	mov    rdx,r13
  4023a4:	|  |  |  |  |   31 c9                	xor    ecx,ecx
  4023a6:	|  |  |  |  |   31 c0                	xor    eax,eax
  4023a8:	|  |  |  |  |   e8 33 fd ff ff       	call   4020e0 <syscall@plt>
  4023ad:	|  |  |  |  |   4c 01 ed             	add    rbp,r13
  4023b0:	|  |  |  |  |   48 8b 44 24 10       	mov    rax,QWORD PTR [rsp+0x10]
  4023b5:	|  |  |  |  |   48 8d 0c 28          	lea    rcx,[rax+rbp*1]
  4023b9:	|  |  |  |  |   48 83 c1 d8          	add    rcx,0xffffffffffffffd8
  4023bd:	|  |  |  |  |   4c 89 64 28 d8       	mov    QWORD PTR [rax+rbp*1-0x28],r12
  4023c2:	|  |  |  |  |   4c 89 7c 28 e0       	mov    QWORD PTR [rax+rbp*1-0x20],r15
  4023c7:	|  |  |  |  |   48 89 6c 28 e8       	mov    QWORD PTR [rax+rbp*1-0x18],rbp
  4023cc:	|  |  |  |  |   48 89 44 28 f0       	mov    QWORD PTR [rax+rbp*1-0x10],rax
  4023d1:	|  |  |  |  |   48 8b 54 24 18       	mov    rdx,QWORD PTR [rsp+0x18]
  4023d6:	|  |  |  |  |   48 89 54 28 f8       	mov    QWORD PTR [rax+rbp*1-0x8],rdx
  4023db:	|  |  |  |  |   48 8d 15 ee 00 00 00 	lea    rdx,[rip+0xee]        # 4024d0 <___interceptor_pthread_create@@Base+0x230>
  4023e2:	|  |  |  |  |   4c 89 f7             	mov    rdi,r14
  4023e5:	|  |  |  |  |   48 89 de             	mov    rsi,rbx
  4023e8:	|  |  |  |  |   ff 15 2a 2d 00 00    	call   QWORD PTR [rip+0x2d2a]        # 405118 <__bss_start@@Base+0x8>
  4023ee:	|  |  |  |  |   48 83 c4 58          	add    rsp,0x58
  4023f2:	|  |  |  |  |   5b                   	pop    rbx
  4023f3:	|  |  |  |  |   41 5c                	pop    r12
  4023f5:	|  |  |  |  |   41 5d                	pop    r13
  4023f7:	|  |  |  |  |   41 5e                	pop    r14
  4023f9:	|  |  |  |  |   41 5f                	pop    r15
  4023fb:	|  |  |  |  |   5d                   	pop    rbp
  4023fc:	|  |  |  |  |   c3                   	ret
  4023fd:	|  |  |  |  \-> 4c 8d 6c 24 20       	lea    r13,[rsp+0x20]
  402402:	|  |  |  |      4c 89 ef             	mov    rdi,r13
  402405:	|  |  |  |      e8 a6 fc ff ff       	call   4020b0 <pthread_attr_init@plt>
  40240a:	|  |  |  |      48 8d 74 24 10       	lea    rsi,[rsp+0x10]
  40240f:	|  |  |  |      4c 89 ef             	mov    rdi,r13
  402412:	|  |  |  |      e8 79 fd ff ff       	call   402190 <pthread_attr_getstacksize@plt>
  402417:	|  |  |  |      48 8d 74 24 18       	lea    rsi,[rsp+0x18]
  40241c:	|  |  |  |      4c 89 ef             	mov    rdi,r13
  40241f:	|  |  |  |      e8 ec fc ff ff       	call   402110 <pthread_attr_getguardsize@plt>
  402424:	|  |  |  |      4c 89 ef             	mov    rdi,r13
  402427:	|  |  |  |      e8 24 fd ff ff       	call   402150 <pthread_attr_destroy@plt>
  40242c:	|  |  |  |      48 8b 54 24 10       	mov    rdx,QWORD PTR [rsp+0x10]
  402431:	|  |  |  |      48 85 d2             	test   rdx,rdx
  402434:	|  |  |  \----- 0f 85 10 ff ff ff    	jne    40234a <___interceptor_pthread_create@@Base+0xaa>
  40243a:	|  |  \-------> 48 8b 05 9f 2b 00 00 	mov    rax,QWORD PTR [rip+0x2b9f]        # 404fe0 <stderr@GLIBC_2.2.5>
  402441:	|  |            48 8b 38             	mov    rdi,QWORD PTR [rax]
  402444:	|  |            48 8d 35 b9 0b 00 00 	lea    rsi,[rip+0xbb9]        # 403004 <_IO_stdin_used@@Base+0x4>
  40244b:	|  |            48 8d 15 d4 0b 00 00 	lea    rdx,[rip+0xbd4]        # 403026 <_IO_stdin_used@@Base+0x26>
  402452:	|  |            4c 8d 05 05 0c 00 00 	lea    r8,[rip+0xc05]        # 40305e <_IO_stdin_used@@Base+0x5e>
  402459:	|  |            b9 e3 00 00 00       	mov    ecx,0xe3
  40245e:	|  |            31 c0                	xor    eax,eax
  402460:	|  |            e8 6b fc ff ff       	call   4020d0 <fprintf@plt>
  402465:	|  |            e8 d6 fb ff ff       	call   402040 <abort@plt>
  40246a:	\--|----------> 48 8b 05 6f 2b 00 00 	mov    rax,QWORD PTR [rip+0x2b6f]        # 404fe0 <stderr@GLIBC_2.2.5>
  402471:	   |            48 8b 38             	mov    rdi,QWORD PTR [rax]
  402474:	   |            48 8d 35 89 0b 00 00 	lea    rsi,[rip+0xb89]        # 403004 <_IO_stdin_used@@Base+0x4>
  40247b:	   |            48 8d 15 a4 0b 00 00 	lea    rdx,[rip+0xba4]        # 403026 <_IO_stdin_used@@Base+0x26>
  402482:	   |            4c 8d 05 c5 0b 00 00 	lea    r8,[rip+0xbc5]        # 40304e <_IO_stdin_used@@Base+0x4e>
  402489:	   |            b9 5c 00 00 00       	mov    ecx,0x5c
  40248e:	   |            31 c0                	xor    eax,eax
  402490:	   |            e8 3b fc ff ff       	call   4020d0 <fprintf@plt>
  402495:	   |            e8 a6 fb ff ff       	call   402040 <abort@plt>
  40249a:	   \----------> 48 8b 05 3f 2b 00 00 	mov    rax,QWORD PTR [rip+0x2b3f]        # 404fe0 <stderr@GLIBC_2.2.5>
  4024a1:	                48 8b 38             	mov    rdi,QWORD PTR [rax]
  4024a4:	                48 8d 35 59 0b 00 00 	lea    rsi,[rip+0xb59]        # 403004 <_IO_stdin_used@@Base+0x4>
  4024ab:	                48 8d 15 74 0b 00 00 	lea    rdx,[rip+0xb74]        # 403026 <_IO_stdin_used@@Base+0x26>
  4024b2:	                4c 8d 05 aa 0b 00 00 	lea    r8,[rip+0xbaa]        # 403063 <_IO_stdin_used@@Base+0x63>
  4024b9:	                b9 5f 00 00 00       	mov    ecx,0x5f
  4024be:	                31 c0                	xor    eax,eax
  4024c0:	                e8 0b fc ff ff       	call   4020d0 <fprintf@plt>
  4024c5:	                e8 76 fb ff ff       	call   402040 <abort@plt>
  4024ca:	                66 0f 1f 44 00 00    	nop    WORD PTR [rax+rax*1+0x0]
  4024d0:	                f3 0f 1e fa          	endbr64
  4024d4:	                55                   	push   rbp
  4024d5:	                41 57                	push   r15
  4024d7:	                41 56                	push   r14
  4024d9:	                41 55                	push   r13
  4024db:	                41 54                	push   r12
  4024dd:	                53                   	push   rbx
  4024de:	                50                   	push   rax
  4024df:	                4c 8b 77 18          	mov    r14,QWORD PTR [rdi+0x18]
  4024e3:	                4d 85 f6             	test   r14,r14
  4024e6:	            /-- 0f 88 80 00 00 00    	js     40256c <___interceptor_pthread_create@@Base+0x2cc>
  4024ec:	            |   4c 8b 7f 20          	mov    r15,QWORD PTR [rdi+0x20]
  4024f0:	            |   4d 85 ff             	test   r15,r15
  4024f3:	         /--|-- 0f 88 a3 00 00 00    	js     40259c <___interceptor_pthread_create@@Base+0x2fc>
  4024f9:	         |  |   4c 8b 67 10          	mov    r12,QWORD PTR [rdi+0x10]
  4024fd:	         |  |   4f 8d 2c 34          	lea    r13,[r12+r14*1]
  402501:	         |  |   41 f6 c5 0f          	test   r13b,0xf
  402505:	      /--|--|-- 0f 85 c1 00 00 00    	jne    4025cc <___interceptor_pthread_create@@Base+0x32c>
  40250b:	      |  |  |   48 8b 2f             	mov    rbp,QWORD PTR [rdi]
  40250e:	      |  |  |   48 8b 5f 08          	mov    rbx,QWORD PTR [rdi+0x8]
  402512:	      |  |  |   64 48 8b 04 25 00 00 	mov    rax,QWORD PTR fs:0x0
  402519:	      |  |  |   00 00 
  40251b:	      |  |  |   48 03 05 a6 2a 00 00 	add    rax,QWORD PTR [rip+0x2aa6]        # 404fc8 <__safestack_unsafe_stack_ptr@@Base+0x404fc8>
  402522:	      |  |  |   4c 89 28             	mov    QWORD PTR [rax],r13
  402525:	      |  |  |   66 66 66 64 48 8b 04 	data16 data16 data16 mov rax,QWORD PTR fs:0x0
  40252c:	      |  |  |   25 00 00 00 00 
  402531:	      |  |  |   4c 89 a0 e8 ff ff ff 	mov    QWORD PTR [rax-0x18],r12
  402538:	      |  |  |   4c 89 b0 f0 ff ff ff 	mov    QWORD PTR [rax-0x10],r14
  40253f:	      |  |  |   4c 89 b8 f8 ff ff ff 	mov    QWORD PTR [rax-0x8],r15
  402546:	      |  |  |   8b 3d d4 2b 00 00    	mov    edi,DWORD PTR [rip+0x2bd4]        # 405120 <__bss_start@@Base+0x10>
  40254c:	      |  |  |   be 01 00 00 00       	mov    esi,0x1
  402551:	      |  |  |   e8 4a fc ff ff       	call   4021a0 <pthread_setspecific@plt>
  402556:	      |  |  |   48 89 df             	mov    rdi,rbx
  402559:	      |  |  |   48 89 e8             	mov    rax,rbp
  40255c:	      |  |  |   48 83 c4 08          	add    rsp,0x8
  402560:	      |  |  |   5b                   	pop    rbx
  402561:	      |  |  |   41 5c                	pop    r12
  402563:	      |  |  |   41 5d                	pop    r13
  402565:	      |  |  |   41 5e                	pop    r14
  402567:	      |  |  |   41 5f                	pop    r15
  402569:	      |  |  |   5d                   	pop    rbp
  40256a:	      |  |  |   ff e0                	jmp    rax
  40256c:	      |  |  \-> 48 8b 05 6d 2a 00 00 	mov    rax,QWORD PTR [rip+0x2a6d]        # 404fe0 <stderr@GLIBC_2.2.5>
  402573:	      |  |      48 8b 38             	mov    rdi,QWORD PTR [rax]
  402576:	      |  |      48 8d 35 87 0a 00 00 	lea    rsi,[rip+0xa87]        # 403004 <_IO_stdin_used@@Base+0x4>
  40257d:	      |  |      48 8d 15 a2 0a 00 00 	lea    rdx,[rip+0xaa2]        # 403026 <_IO_stdin_used@@Base+0x26>
  402584:	      |  |      4c 8d 05 fa 0a 00 00 	lea    r8,[rip+0xafa]        # 403085 <_IO_stdin_used@@Base+0x85>
  40258b:	      |  |      b9 65 00 00 00       	mov    ecx,0x65
  402590:	      |  |      31 c0                	xor    eax,eax
  402592:	      |  |      e8 39 fb ff ff       	call   4020d0 <fprintf@plt>
  402597:	      |  |      e8 a4 fa ff ff       	call   402040 <abort@plt>
  40259c:	      |  \----> 48 8b 05 3d 2a 00 00 	mov    rax,QWORD PTR [rip+0x2a3d]        # 404fe0 <stderr@GLIBC_2.2.5>
  4025a3:	      |         48 8b 38             	mov    rdi,QWORD PTR [rax]
  4025a6:	      |         48 8d 35 57 0a 00 00 	lea    rsi,[rip+0xa57]        # 403004 <_IO_stdin_used@@Base+0x4>
  4025ad:	      |         48 8d 15 72 0a 00 00 	lea    rdx,[rip+0xa72]        # 403026 <_IO_stdin_used@@Base+0x26>
  4025b4:	      |         4c 8d 05 f0 0a 00 00 	lea    r8,[rip+0xaf0]        # 4030ab <_IO_stdin_used@@Base+0xab>
  4025bb:	      |         b9 66 00 00 00       	mov    ecx,0x66
  4025c0:	      |         31 c0                	xor    eax,eax
  4025c2:	      |         e8 09 fb ff ff       	call   4020d0 <fprintf@plt>
  4025c7:	      |         e8 74 fa ff ff       	call   402040 <abort@plt>
  4025cc:	      \-------> 48 8b 05 0d 2a 00 00 	mov    rax,QWORD PTR [rip+0x2a0d]        # 404fe0 <stderr@GLIBC_2.2.5>
  4025d3:	                48 8b 38             	mov    rdi,QWORD PTR [rax]
  4025d6:	                48 8d 35 27 0a 00 00 	lea    rsi,[rip+0xa27]        # 403004 <_IO_stdin_used@@Base+0x4>
  4025dd:	                48 8d 15 42 0a 00 00 	lea    rdx,[rip+0xa42]        # 403026 <_IO_stdin_used@@Base+0x26>
  4025e4:	                4c 8d 05 e7 0a 00 00 	lea    r8,[rip+0xae7]        # 4030d2 <_IO_stdin_used@@Base+0xd2>
  4025eb:	                b9 68 00 00 00       	mov    ecx,0x68
  4025f0:	                31 c0                	xor    eax,eax
  4025f2:	                e8 d9 fa ff ff       	call   4020d0 <fprintf@plt>
  4025f7:	                e8 44 fa ff ff       	call   402040 <abort@plt>
  4025fc:	                0f 1f 40 00          	nop    DWORD PTR [rax+0x0]

0000000000402600 <__safestack_init@@Base>:
  402600:	                f3 0f 1e fa          	endbr64
  402604:	                41 57                	push   r15
  402606:	                41 56                	push   r14
  402608:	                53                   	push   rbx
  402609:	                48 83 ec 20          	sub    rsp,0x20
  40260d:	                48 8d 74 24 10       	lea    rsi,[rsp+0x10]
  402612:	                bf 03 00 00 00       	mov    edi,0x3
  402617:	                e8 44 fb ff ff       	call   402160 <getrlimit@plt>
  40261c:	                4c 8b 74 24 10       	mov    r14,QWORD PTR [rsp+0x10]
  402621:	                49 83 fe ff          	cmp    r14,0xffffffffffffffff
  402625:	                b9 00 00 80 02       	mov    ecx,0x2800000
  40262a:	                4c 0f 44 f1          	cmove  r14,rcx
  40262e:	                85 c0                	test   eax,eax
  402630:	                4c 0f 45 f1          	cmovne r14,rcx
  402634:	                49 81 fe 00 f0 ff ff 	cmp    r14,0xfffffffffffff000
  40263b:	         /----- 0f 83 cb 00 00 00    	jae    40270c <__safestack_init@@Base+0x10c>
  402641:	         |      49 8d 96 00 10 00 00 	lea    rdx,[r14+0x1000]
  402648:	         |      48 c7 04 24 00 00 00 	mov    QWORD PTR [rsp],0x0
  40264f:	         |      00 
  402650:	         |      bf 09 00 00 00       	mov    edi,0x9
  402655:	         |      31 f6                	xor    esi,esi
  402657:	         |      b9 03 00 00 00       	mov    ecx,0x3
  40265c:	         |      41 b8 22 00 00 00    	mov    r8d,0x22
  402662:	         |      41 b9 ff ff ff ff    	mov    r9d,0xffffffff
  402668:	         |      31 c0                	xor    eax,eax
  40266a:	         |      e8 71 fa ff ff       	call   4020e0 <syscall@plt>
  40266f:	         |      48 83 f8 ff          	cmp    rax,0xffffffffffffffff
  402673:	         |  /-- 0f 84 c3 00 00 00    	je     40273c <__safestack_init@@Base+0x13c>
  402679:	         |  |   48 89 c3             	mov    rbx,rax
  40267c:	         |  |   bf 0a 00 00 00       	mov    edi,0xa
  402681:	         |  |   ba 00 10 00 00       	mov    edx,0x1000
  402686:	         |  |   48 89 c6             	mov    rsi,rax
  402689:	         |  |   31 c9                	xor    ecx,ecx
  40268b:	         |  |   31 c0                	xor    eax,eax
  40268d:	         |  |   e8 4e fa ff ff       	call   4020e0 <syscall@plt>
  402692:	         |  |   4d 85 f6             	test   r14,r14
  402695:	      /--|--|-- 0f 88 d1 00 00 00    	js     40276c <__safestack_init@@Base+0x16c>
  40269b:	      |  |  |   4e 8d 3c 33          	lea    r15,[rbx+r14*1]
  40269f:	      |  |  |   49 81 c7 00 10 00 00 	add    r15,0x1000
  4026a6:	      |  |  |   41 f6 c7 0f          	test   r15b,0xf
  4026aa:	   /--|--|--|-- 0f 85 ec 00 00 00    	jne    40279c <__safestack_init@@Base+0x19c>
  4026b0:	   |  |  |  |   48 81 c3 00 10 00 00 	add    rbx,0x1000
  4026b7:	   |  |  |  |   64 48 8b 04 25 00 00 	mov    rax,QWORD PTR fs:0x0
  4026be:	   |  |  |  |   00 00 
  4026c0:	   |  |  |  |   48 03 05 01 29 00 00 	add    rax,QWORD PTR [rip+0x2901]        # 404fc8 <__safestack_unsafe_stack_ptr@@Base+0x404fc8>
  4026c7:	   |  |  |  |   4c 89 38             	mov    QWORD PTR [rax],r15
  4026ca:	   |  |  |  |   66 66 66 64 48 8b 04 	data16 data16 data16 mov rax,QWORD PTR fs:0x0
  4026d1:	   |  |  |  |   25 00 00 00 00 
  4026d6:	   |  |  |  |   48 89 98 e8 ff ff ff 	mov    QWORD PTR [rax-0x18],rbx
  4026dd:	   |  |  |  |   4c 89 b0 f0 ff ff ff 	mov    QWORD PTR [rax-0x10],r14
  4026e4:	   |  |  |  |   48 c7 80 f8 ff ff ff 	mov    QWORD PTR [rax-0x8],0x1000
  4026eb:	   |  |  |  |   00 10 00 00 
  4026ef:	   |  |  |  |   48 8d 3d 2a 2a 00 00 	lea    rdi,[rip+0x2a2a]        # 405120 <__bss_start@@Base+0x10>
  4026f6:	   |  |  |  |   48 8d 35 d3 00 00 00 	lea    rsi,[rip+0xd3]        # 4027d0 <__safestack_init@@Base+0x1d0>
  4026fd:	   |  |  |  |   e8 8e f9 ff ff       	call   402090 <pthread_key_create@plt>
  402702:	   |  |  |  |   48 83 c4 20          	add    rsp,0x20
  402706:	   |  |  |  |   5b                   	pop    rbx
  402707:	   |  |  |  |   41 5e                	pop    r14
  402709:	   |  |  |  |   41 5f                	pop    r15
  40270b:	   |  |  |  |   c3                   	ret
  40270c:	   |  |  \--|-> 48 8b 05 cd 28 00 00 	mov    rax,QWORD PTR [rip+0x28cd]        # 404fe0 <stderr@GLIBC_2.2.5>
  402713:	   |  |     |   48 8b 38             	mov    rdi,QWORD PTR [rax]
  402716:	   |  |     |   48 8d 35 e7 08 00 00 	lea    rsi,[rip+0x8e7]        # 403004 <_IO_stdin_used@@Base+0x4>
  40271d:	   |  |     |   48 8d 15 02 09 00 00 	lea    rdx,[rip+0x902]        # 403026 <_IO_stdin_used@@Base+0x26>
  402724:	   |  |     |   4c 8d 05 23 09 00 00 	lea    r8,[rip+0x923]        # 40304e <_IO_stdin_used@@Base+0x4e>
  40272b:	   |  |     |   b9 5c 00 00 00       	mov    ecx,0x5c
  402730:	   |  |     |   31 c0                	xor    eax,eax
  402732:	   |  |     |   e8 99 f9 ff ff       	call   4020d0 <fprintf@plt>
  402737:	   |  |     |   e8 04 f9 ff ff       	call   402040 <abort@plt>
  40273c:	   |  |     \-> 48 8b 05 9d 28 00 00 	mov    rax,QWORD PTR [rip+0x289d]        # 404fe0 <stderr@GLIBC_2.2.5>
  402743:	   |  |         48 8b 38             	mov    rdi,QWORD PTR [rax]
  402746:	   |  |         48 8d 35 b7 08 00 00 	lea    rsi,[rip+0x8b7]        # 403004 <_IO_stdin_used@@Base+0x4>
  40274d:	   |  |         48 8d 15 d2 08 00 00 	lea    rdx,[rip+0x8d2]        # 403026 <_IO_stdin_used@@Base+0x26>
  402754:	   |  |         4c 8d 05 08 09 00 00 	lea    r8,[rip+0x908]        # 403063 <_IO_stdin_used@@Base+0x63>
  40275b:	   |  |         b9 5f 00 00 00       	mov    ecx,0x5f
  402760:	   |  |         31 c0                	xor    eax,eax
  402762:	   |  |         e8 69 f9 ff ff       	call   4020d0 <fprintf@plt>
  402767:	   |  |         e8 d4 f8 ff ff       	call   402040 <abort@plt>
  40276c:	   |  \-------> 48 8b 05 6d 28 00 00 	mov    rax,QWORD PTR [rip+0x286d]        # 404fe0 <stderr@GLIBC_2.2.5>
  402773:	   |            48 8b 38             	mov    rdi,QWORD PTR [rax]
  402776:	   |            48 8d 35 87 08 00 00 	lea    rsi,[rip+0x887]        # 403004 <_IO_stdin_used@@Base+0x4>
  40277d:	   |            48 8d 15 a2 08 00 00 	lea    rdx,[rip+0x8a2]        # 403026 <_IO_stdin_used@@Base+0x26>
  402784:	   |            4c 8d 05 fa 08 00 00 	lea    r8,[rip+0x8fa]        # 403085 <_IO_stdin_used@@Base+0x85>
  40278b:	   |            b9 65 00 00 00       	mov    ecx,0x65
  402790:	   |            31 c0                	xor    eax,eax
  402792:	   |            e8 39 f9 ff ff       	call   4020d0 <fprintf@plt>
  402797:	   |            e8 a4 f8 ff ff       	call   402040 <abort@plt>
  40279c:	   \----------> 48 8b 05 3d 28 00 00 	mov    rax,QWORD PTR [rip+0x283d]        # 404fe0 <stderr@GLIBC_2.2.5>
  4027a3:	                48 8b 38             	mov    rdi,QWORD PTR [rax]
  4027a6:	                48 8d 35 57 08 00 00 	lea    rsi,[rip+0x857]        # 403004 <_IO_stdin_used@@Base+0x4>
  4027ad:	                48 8d 15 72 08 00 00 	lea    rdx,[rip+0x872]        # 403026 <_IO_stdin_used@@Base+0x26>
  4027b4:	                4c 8d 05 17 09 00 00 	lea    r8,[rip+0x917]        # 4030d2 <_IO_stdin_used@@Base+0xd2>
  4027bb:	                b9 68 00 00 00       	mov    ecx,0x68
  4027c0:	                31 c0                	xor    eax,eax
  4027c2:	                e8 09 f9 ff ff       	call   4020d0 <fprintf@plt>
  4027c7:	                e8 74 f8 ff ff       	call   402040 <abort@plt>
  4027cc:	                0f 1f 40 00          	nop    DWORD PTR [rax+0x0]
  4027d0:	                f3 0f 1e fa          	endbr64
  4027d4:	                55                   	push   rbp
  4027d5:	                41 57                	push   r15
  4027d7:	                41 56                	push   r14
  4027d9:	                41 55                	push   r13
  4027db:	                41 54                	push   r12
  4027dd:	                53                   	push   rbx
  4027de:	                50                   	push   rax
  4027df:	                66 66 66 64 48 8b 04 	data16 data16 data16 mov rax,QWORD PTR fs:0x0
  4027e6:	                25 00 00 00 00 
  4027eb:	                48 83 b8 e8 ff ff ff 	cmp    QWORD PTR [rax-0x18],0x0
  4027f2:	                00 
  4027f3:	/-------------- 0f 84 47 01 00 00    	je     402940 <__safestack_init@@Base+0x340>
  4027f9:	|               48 89 c3             	mov    rbx,rax
  4027fc:	|               4c 8d a0 e8 ff ff ff 	lea    r12,[rax-0x18]
  402803:	|               8b 3d 17 29 00 00    	mov    edi,DWORD PTR [rip+0x2917]        # 405120 <__bss_start@@Base+0x10>
  402809:	|               31 f6                	xor    esi,esi
  40280b:	|               e8 90 f9 ff ff       	call   4021a0 <pthread_setspecific@plt>
  402810:	|               4c 8d 35 41 29 00 00 	lea    r14,[rip+0x2941]        # 405158 <__bss_start@@Base+0x48>
  402817:	|               4c 89 f7             	mov    rdi,r14
  40281a:	|               e8 61 f9 ff ff       	call   402180 <pthread_mutex_lock@plt>
  40281f:	|               4c 8b 3d 5a 29 00 00 	mov    r15,QWORD PTR [rip+0x295a]        # 405180 <__bss_start@@Base+0x70>
  402826:	|               4c 89 3c 24          	mov    QWORD PTR [rsp],r15
  40282a:	|               48 c7 05 4b 29 00 00 	mov    QWORD PTR [rip+0x294b],0x0        # 405180 <__bss_start@@Base+0x70>
  402831:	|               00 00 00 00 
  402835:	|               4c 89 f7             	mov    rdi,r14
  402838:	|               e8 e3 f8 ff ff       	call   402120 <pthread_mutex_unlock@plt>
  40283d:	|               e8 2e f8 ff ff       	call   402070 <getpid@plt>
  402842:	|               89 c5                	mov    ebp,eax
  402844:	|               bf ba 00 00 00       	mov    edi,0xba
  402849:	|               31 c0                	xor    eax,eax
  40284b:	|               e8 90 f8 ff ff       	call   4020e0 <syscall@plt>
  402850:	|               49 89 c6             	mov    r14,rax
  402853:	|               49 89 e5             	mov    r13,rsp
  402856:	|  /----------- eb 2f                	jmp    402887 <__safestack_init@@Base+0x287>
  402858:	|  |            0f 1f 84 00 00 00 00 	nop    DWORD PTR [rax+rax*1+0x0]
  40285f:	|  |            00 
  402860:	|  |  /-------> 49 8b 77 08          	mov    rsi,QWORD PTR [r15+0x8]
  402864:	|  |  |         49 8b 57 10          	mov    rdx,QWORD PTR [r15+0x10]
  402868:	|  |  |         bf 0b 00 00 00       	mov    edi,0xb
  40286d:	|  |  |         31 c0                	xor    eax,eax
  40286f:	|  |  |         e8 6c f8 ff ff       	call   4020e0 <syscall@plt>
  402874:	|  |  |         49 8b 07             	mov    rax,QWORD PTR [r15]
  402877:	|  |  |         49 89 45 00          	mov    QWORD PTR [r13+0x0],rax
  40287b:	|  |  |         4c 89 ff             	mov    rdi,r15
  40287e:	|  |  |         e8 ad f7 ff ff       	call   402030 <free@plt>
  402883:	|  |  |         4d 8b 7d 00          	mov    r15,QWORD PTR [r13+0x0]
  402887:	|  >--|-------> 4d 85 ff             	test   r15,r15
  40288a:	|  |  |  /----- 74 3c                	je     4028c8 <__safestack_init@@Base+0x2c8>
  40288c:	|  |  |  |      41 39 6f 18          	cmp    DWORD PTR [r15+0x18],ebp
  402890:	|  |  +--|----- 75 ce                	jne    402860 <__safestack_init@@Base+0x260>
  402892:	|  |  |  |      49 8b 57 20          	mov    rdx,QWORD PTR [r15+0x20]
  402896:	|  |  |  |      bf ea 00 00 00       	mov    edi,0xea
  40289b:	|  |  |  |      89 ee                	mov    esi,ebp
  40289d:	|  |  |  |      31 c9                	xor    ecx,ecx
  40289f:	|  |  |  |      31 c0                	xor    eax,eax
  4028a1:	|  |  |  |      e8 3a f8 ff ff       	call   4020e0 <syscall@plt>
  4028a6:	|  |  |  |      83 f8 ff             	cmp    eax,0xffffffff
  4028a9:	|  |  |  |  /-- 75 15                	jne    4028c0 <__safestack_init@@Base+0x2c0>
  4028ab:	|  |  |  |  |   e8 a0 f7 ff ff       	call   402050 <__errno_location@plt>
  4028b0:	|  |  |  |  |   83 38 03             	cmp    DWORD PTR [rax],0x3
  4028b3:	|  |  \--|--|-- 74 ab                	je     402860 <__safestack_init@@Base+0x260>
  4028b5:	|  |     |  |   4d 89 fd             	mov    r13,r15
  4028b8:	|  |     |  |   4d 8b 3f             	mov    r15,QWORD PTR [r15]
  4028bb:	|  +-----|--|-- eb ca                	jmp    402887 <__safestack_init@@Base+0x287>
  4028bd:	|  |     |  |   0f 1f 00             	nop    DWORD PTR [rax]
  4028c0:	|  |     |  \-> 4d 89 fd             	mov    r13,r15
  4028c3:	|  |     |      4d 8b 3f             	mov    r15,QWORD PTR [r15]
  4028c6:	|  \-----|----- eb bf                	jmp    402887 <__safestack_init@@Base+0x287>
  4028c8:	|        \----> bf 28 00 00 00       	mov    edi,0x28
  4028cd:	|               e8 5e f8 ff ff       	call   402130 <malloc@plt>
  4028d2:	|               49 89 c7             	mov    r15,rax
  4028d5:	|               49 8b 0c 24          	mov    rcx,QWORD PTR [r12]
  4028d9:	|               48 8b 93 f8 ff ff ff 	mov    rdx,QWORD PTR [rbx-0x8]
  4028e0:	|               48 29 d1             	sub    rcx,rdx
  4028e3:	|               48 89 48 08          	mov    QWORD PTR [rax+0x8],rcx
  4028e7:	|               48 03 93 f0 ff ff ff 	add    rdx,QWORD PTR [rbx-0x10]
  4028ee:	|               48 89 50 10          	mov    QWORD PTR [rax+0x10],rdx
  4028f2:	|               89 68 18             	mov    DWORD PTR [rax+0x18],ebp
  4028f5:	|               4c 89 70 20          	mov    QWORD PTR [rax+0x20],r14
  4028f9:	|               48 8d 1d 58 28 00 00 	lea    rbx,[rip+0x2858]        # 405158 <__bss_start@@Base+0x48>
  402900:	|               48 89 df             	mov    rdi,rbx
  402903:	|               e8 78 f8 ff ff       	call   402180 <pthread_mutex_lock@plt>
  402908:	|               48 8b 05 71 28 00 00 	mov    rax,QWORD PTR [rip+0x2871]        # 405180 <__bss_start@@Base+0x70>
  40290f:	|               49 89 45 00          	mov    QWORD PTR [r13+0x0],rax
  402913:	|               48 8b 04 24          	mov    rax,QWORD PTR [rsp]
  402917:	|               49 89 07             	mov    QWORD PTR [r15],rax
  40291a:	|               4c 89 3d 5f 28 00 00 	mov    QWORD PTR [rip+0x285f],r15        # 405180 <__bss_start@@Base+0x70>
  402921:	|               48 89 df             	mov    rdi,rbx
  402924:	|               e8 f7 f7 ff ff       	call   402120 <pthread_mutex_unlock@plt>
  402929:	|               49 c7 04 24 00 00 00 	mov    QWORD PTR [r12],0x0
  402930:	|               00 
  402931:	|               48 83 c4 08          	add    rsp,0x8
  402935:	|               5b                   	pop    rbx
  402936:	|               41 5c                	pop    r12
  402938:	|               41 5d                	pop    r13
  40293a:	|               41 5e                	pop    r14
  40293c:	|               41 5f                	pop    r15
  40293e:	|               5d                   	pop    rbp
  40293f:	|               c3                   	ret
  402940:	\-------------> 48 8b 05 99 26 00 00 	mov    rax,QWORD PTR [rip+0x2699]        # 404fe0 <stderr@GLIBC_2.2.5>
  402947:	                48 8b 38             	mov    rdi,QWORD PTR [rax]
  40294a:	                48 8d 35 b3 06 00 00 	lea    rsi,[rip+0x6b3]        # 403004 <_IO_stdin_used@@Base+0x4>
  402951:	                48 8d 15 ce 06 00 00 	lea    rdx,[rip+0x6ce]        # 403026 <_IO_stdin_used@@Base+0x26>
  402958:	                4c 8d 05 a2 07 00 00 	lea    r8,[rip+0x7a2]        # 403101 <_IO_stdin_used@@Base+0x101>
  40295f:	                b9 a1 00 00 00       	mov    ecx,0xa1
  402964:	                31 c0                	xor    eax,eax
  402966:	                e8 65 f7 ff ff       	call   4020d0 <fprintf@plt>
  40296b:	                e8 d0 f6 ff ff       	call   402040 <abort@plt>

0000000000402970 <__get_unsafe_stack_bottom@@Base>:
  402970:	f3 0f 1e fa          	endbr64
  402974:	50                   	push   rax
  402975:	66 66 66 64 48 8b 04 	data16 data16 data16 mov rax,QWORD PTR fs:0x0
  40297c:	25 00 00 00 00 
  402981:	48 8b 80 e8 ff ff ff 	mov    rax,QWORD PTR [rax-0x18]
  402988:	59                   	pop    rcx
  402989:	c3                   	ret
  40298a:	66 0f 1f 44 00 00    	nop    WORD PTR [rax+rax*1+0x0]

0000000000402990 <__get_unsafe_stack_top@@Base>:
  402990:	f3 0f 1e fa          	endbr64
  402994:	50                   	push   rax
  402995:	66 66 66 64 48 8b 04 	data16 data16 data16 mov rax,QWORD PTR fs:0x0
  40299c:	25 00 00 00 00 
  4029a1:	48 8b 88 e8 ff ff ff 	mov    rcx,QWORD PTR [rax-0x18]
  4029a8:	48 03 88 f0 ff ff ff 	add    rcx,QWORD PTR [rax-0x10]
  4029af:	48 89 c8             	mov    rax,rcx
  4029b2:	59                   	pop    rcx
  4029b3:	c3                   	ret
  4029b4:	66 2e 0f 1f 84 00 00 	cs nop WORD PTR [rax+rax*1+0x0]
  4029bb:	00 00 00 
  4029be:	66 90                	xchg   ax,ax

00000000004029c0 <__get_unsafe_stack_start@@Base>:
  4029c0:	f3 0f 1e fa          	endbr64
  4029c4:	50                   	push   rax
  4029c5:	66 66 66 64 48 8b 04 	data16 data16 data16 mov rax,QWORD PTR fs:0x0
  4029cc:	25 00 00 00 00 
  4029d1:	48 8b 80 e8 ff ff ff 	mov    rax,QWORD PTR [rax-0x18]
  4029d8:	59                   	pop    rcx
  4029d9:	c3                   	ret
  4029da:	66 0f 1f 44 00 00    	nop    WORD PTR [rax+rax*1+0x0]

00000000004029e0 <__get_unsafe_stack_ptr@@Base>:
  4029e0:	    f3 0f 1e fa          	endbr64
  4029e4:	    50                   	push   rax
  4029e5:	    64 48 8b 04 25 00 00 	mov    rax,QWORD PTR fs:0x0
  4029ec:	    00 00 
  4029ee:	    48 03 05 d3 25 00 00 	add    rax,QWORD PTR [rip+0x25d3]        # 404fc8 <__safestack_unsafe_stack_ptr@@Base+0x404fc8>
  4029f5:	    48 8b 00             	mov    rax,QWORD PTR [rax]
  4029f8:	    59                   	pop    rcx
  4029f9:	    c3                   	ret
  4029fa:	    66 90                	xchg   ax,ax
  4029fc:	    0f 1f 40 00          	nop    DWORD PTR [rax+0x0]
  402a00:	    f3 0f 1e fa          	endbr64
  402a04:	    41 57                	push   r15
  402a06:	    41 56                	push   r14
  402a08:	    41 55                	push   r13
  402a0a:	    41 54                	push   r12
  402a0c:	    53                   	push   rbx
  402a0d:	    48 89 cb             	mov    rbx,rcx
  402a10:	    49 89 d6             	mov    r14,rdx
  402a13:	    49 89 f7             	mov    r15,rsi
  402a16:	    49 89 fc             	mov    r12,rdi
  402a19:	    48 c7 c7 ff ff ff ff 	mov    rdi,0xffffffffffffffff
  402a20:	    4c 89 e6             	mov    rsi,r12
  402a23:	    e8 18 f7 ff ff       	call   402140 <dlsym@plt>
  402a28:	    48 85 c0             	test   rax,rax
  402a2b:	/-- 75 14                	jne    402a41 <__get_unsafe_stack_ptr@@Base+0x61>
  402a2d:	|   45 31 ed             	xor    r13d,r13d
  402a30:	|   31 ff                	xor    edi,edi
  402a32:	|   4c 89 e6             	mov    rsi,r12
  402a35:	|   e8 06 f7 ff ff       	call   402140 <dlsym@plt>
  402a3a:	|   48 39 d8             	cmp    rax,rbx
  402a3d:	|   49 0f 44 c5          	cmove  rax,r13
  402a41:	\-> 49 89 07             	mov    QWORD PTR [r15],rax
  402a44:	    48 85 c0             	test   rax,rax
  402a47:	    0f 95 c1             	setne  cl
  402a4a:	    49 39 de             	cmp    r14,rbx
  402a4d:	    0f 94 c0             	sete   al
  402a50:	    20 c8                	and    al,cl
  402a52:	    5b                   	pop    rbx
  402a53:	    41 5c                	pop    r12
  402a55:	    41 5d                	pop    r13
  402a57:	    41 5e                	pop    r14
  402a59:	    41 5f                	pop    r15
  402a5b:	    c3                   	ret
  402a5c:	    0f 1f 40 00          	nop    DWORD PTR [rax+0x0]
  402a60:	    f3 0f 1e fa          	endbr64
  402a64:	    41 57                	push   r15
  402a66:	    41 56                	push   r14
  402a68:	    53                   	push   rbx
  402a69:	    4c 89 c3             	mov    rbx,r8
  402a6c:	    49 89 ce             	mov    r14,rcx
  402a6f:	    49 89 d7             	mov    r15,rdx
  402a72:	    48 89 f2             	mov    rdx,rsi
  402a75:	    48 89 fe             	mov    rsi,rdi
  402a78:	    48 c7 c7 ff ff ff ff 	mov    rdi,0xffffffffffffffff
  402a7f:	    e8 ec f6 ff ff       	call   402170 <dlvsym@plt>
  402a84:	    49 89 07             	mov    QWORD PTR [r15],rax
  402a87:	    48 85 c0             	test   rax,rax
  402a8a:	    0f 95 c1             	setne  cl
  402a8d:	    49 39 de             	cmp    r14,rbx
  402a90:	    0f 94 c0             	sete   al
  402a93:	    20 c8                	and    al,cl
  402a95:	    5b                   	pop    rbx
  402a96:	    41 5e                	pop    r14
  402a98:	    41 5f                	pop    r15
  402a9a:	    c3                   	ret
  402a9b:	    0f 1f 44 00 00       	nop    DWORD PTR [rax+rax*1+0x0]

0000000000402aa0 <g_arg2setyy@@Base>:
  402aa0:	b8 01 00 00 00       	mov    eax,0x1
  402aa5:	c3                   	ret
  402aa6:	66 2e 0f 1f 84 00 00 	cs nop WORD PTR [rax+rax*1+0x0]
  402aad:	00 00 00 

0000000000402ab0 <g_arg2setxx@@Base>:
  402ab0:	31 c0                	xor    eax,eax
  402ab2:	c3                   	ret
  402ab3:	66 66 66 66 2e 0f 1f 	data16 data16 data16 cs nop WORD PTR [rax+rax*1+0x0]
  402aba:	84 00 00 00 00 00 

0000000000402ac0 <g_yyret@@Base>:
  402ac0:	b8 34 00 00 00       	mov    eax,0x34
  402ac5:	c3                   	ret
  402ac6:	66 2e 0f 1f 84 00 00 	cs nop WORD PTR [rax+rax*1+0x0]
  402acd:	00 00 00 

0000000000402ad0 <g_xxret@@Base>:
  402ad0:	b8 35 00 00 00       	mov    eax,0x35
  402ad5:	c3                   	ret
  402ad6:	66 2e 0f 1f 84 00 00 	cs nop WORD PTR [rax+rax*1+0x0]
  402add:	00 00 00 

0000000000402ae0 <g_z1@@Base>:
  402ae0:	31 c0                	xor    eax,eax
  402ae2:	c3                   	ret
  402ae3:	66 66 66 66 2e 0f 1f 	data16 data16 data16 cs nop WORD PTR [rax+rax*1+0x0]
  402aea:	84 00 00 00 00 00 

0000000000402af0 <g_rax2rsi@@Base>:
  402af0:	48 89 c6             	mov    rsi,rax
  402af3:	c3                   	ret
  402af4:	66 66 66 2e 0f 1f 84 	data16 data16 cs nop WORD PTR [rax+rax*1+0x0]
  402afb:	00 00 00 00 00 

0000000000402b00 <g_rax2rdi@@Base>:
  402b00:	48 89 c7             	mov    rdi,rax
  402b03:	c3                   	ret
  402b04:	66 66 66 2e 0f 1f 84 	data16 data16 cs nop WORD PTR [rax+rax*1+0x0]
  402b0b:	00 00 00 00 00 

0000000000402b10 <g_sh@@Base>:
  402b10:	48 8b 05 b9 25 00 00 	mov    rax,QWORD PTR [rip+0x25b9]        # 4050d0 <binsh@@Base>
  402b17:	c3                   	ret
  402b18:	0f 1f 84 00 00 00 00 	nop    DWORD PTR [rax+rax*1+0x0]
  402b1f:	00 

0000000000402b20 <g_sh2@@Base>:
  402b20:	48 8b 05 a9 25 00 00 	mov    rax,QWORD PTR [rip+0x25a9]        # 4050d0 <binsh@@Base>
  402b27:	c3                   	ret
  402b28:	0f 1f 84 00 00 00 00 	nop    DWORD PTR [rax+rax*1+0x0]
  402b2f:	00 

0000000000402b30 <g_sh3@@Base>:
  402b30:	48 8b 05 99 25 00 00 	mov    rax,QWORD PTR [rip+0x2599]        # 4050d0 <binsh@@Base>
  402b37:	c3                   	ret
  402b38:	0f 1f 84 00 00 00 00 	nop    DWORD PTR [rax+rax*1+0x0]
  402b3f:	00 

0000000000402b40 <g_rax2rdx@@Base>:
  402b40:	48 89 c2             	mov    rdx,rax
  402b43:	c3                   	ret
  402b44:	66 66 66 2e 0f 1f 84 	data16 data16 cs nop WORD PTR [rax+rax*1+0x0]
  402b4b:	00 00 00 00 00 

0000000000402b50 <g_rsi2rax@@Base>:
  402b50:	48 89 f0             	mov    rax,rsi
  402b53:	c3                   	ret
  402b54:	66 66 66 2e 0f 1f 84 	data16 data16 cs nop WORD PTR [rax+rax*1+0x0]
  402b5b:	00 00 00 00 00 

0000000000402b60 <g_rdi2rax@@Base>:
  402b60:	48 89 f8             	mov    rax,rdi
  402b63:	c3                   	ret
  402b64:	66 66 66 2e 0f 1f 84 	data16 data16 cs nop WORD PTR [rax+rax*1+0x0]
  402b6b:	00 00 00 00 00 

0000000000402b70 <g_rdx2rax@@Base>:
  402b70:	48 89 d0             	mov    rax,rdx
  402b73:	c3                   	ret
  402b74:	66 66 66 2e 0f 1f 84 	data16 data16 cs nop WORD PTR [rax+rax*1+0x0]
  402b7b:	00 00 00 00 00 

0000000000402b80 <g_z2@@Base>:
  402b80:	48 31 f6             	xor    rsi,rsi
  402b83:	c3                   	ret
  402b84:	66 66 66 2e 0f 1f 84 	data16 data16 cs nop WORD PTR [rax+rax*1+0x0]
  402b8b:	00 00 00 00 00 

0000000000402b90 <g_z3@@Base>:
  402b90:	48 31 c0             	xor    rax,rax
  402b93:	c3                   	ret
  402b94:	66 66 66 2e 0f 1f 84 	data16 data16 cs nop WORD PTR [rax+rax*1+0x0]
  402b9b:	00 00 00 00 00 

0000000000402ba0 <g_inc8@@Base>:
  402ba0:	48 83 c0 08          	add    rax,0x8
  402ba4:	c3                   	ret
  402ba5:	66 66 2e 0f 1f 84 00 	data16 cs nop WORD PTR [rax+rax*1+0x0]
  402bac:	00 00 00 00 

0000000000402bb0 <g_inc32@@Base>:
  402bb0:	48 83 c0 20          	add    rax,0x20
  402bb4:	c3                   	ret
  402bb5:	66 66 2e 0f 1f 84 00 	data16 cs nop WORD PTR [rax+rax*1+0x0]
  402bbc:	00 00 00 00 

0000000000402bc0 <g_inc58@@Base>:
  402bc0:	48 83 c0 3a          	add    rax,0x3a
  402bc4:	c3                   	ret
  402bc5:	66 66 2e 0f 1f 84 00 	data16 cs nop WORD PTR [rax+rax*1+0x0]
  402bcc:	00 00 00 00 

0000000000402bd0 <g_inc59@@Base>:
  402bd0:	48 83 c0 3b          	add    rax,0x3b
  402bd4:	c3                   	ret
  402bd5:	66 66 2e 0f 1f 84 00 	data16 cs nop WORD PTR [rax+rax*1+0x0]
  402bdc:	00 00 00 00 

0000000000402be0 <g_inc@@Base>:
  402be0:	48 83 c0 01          	add    rax,0x1
  402be4:	c3                   	ret
  402be5:	66 66 2e 0f 1f 84 00 	data16 cs nop WORD PTR [rax+rax*1+0x0]
  402bec:	00 00 00 00 

0000000000402bf0 <g_z5@@Base>:
  402bf0:	48 c7 c2 00 00 00 00 	mov    rdx,0x0
  402bf7:	c3                   	ret
  402bf8:	0f 1f 84 00 00 00 00 	nop    DWORD PTR [rax+rax*1+0x0]
  402bff:	00 

0000000000402c00 <g_poprdx@@Base>:
  402c00:	48 c7 c2 00 00 00 00 	mov    rdx,0x0
  402c07:	52                   	push   rdx
  402c08:	5a                   	pop    rdx
  402c09:	c3                   	ret
  402c0a:	66 0f 1f 44 00 00    	nop    WORD PTR [rax+rax*1+0x0]

0000000000402c10 <gaddyy@@Base>:
  402c10:	48 8d 47 02          	lea    rax,[rdi+0x2]
  402c14:	c3                   	ret
  402c15:	66 66 2e 0f 1f 84 00 	data16 cs nop WORD PTR [rax+rax*1+0x0]
  402c1c:	00 00 00 00 

0000000000402c20 <gaddxx@@Base>:
  402c20:	48 8d 47 01          	lea    rax,[rdi+0x1]
  402c24:	c3                   	ret
  402c25:	66 66 2e 0f 1f 84 00 	data16 cs nop WORD PTR [rax+rax*1+0x0]
  402c2c:	00 00 00 00 

0000000000402c30 <gaddxy@@Base>:
  402c30:	48 8d 04 37          	lea    rax,[rdi+rsi*1]
  402c34:	c3                   	ret
  402c35:	66 66 2e 0f 1f 84 00 	data16 cs nop WORD PTR [rax+rax*1+0x0]
  402c3c:	00 00 00 00 

0000000000402c40 <gaddxyz@@Base>:
  402c40:	48 8d 04 37          	lea    rax,[rdi+rsi*1]
  402c44:	48 01 d0             	add    rax,rdx
  402c47:	c3                   	ret
  402c48:	0f 1f 84 00 00 00 00 	nop    DWORD PTR [rax+rax*1+0x0]
  402c4f:	00 

0000000000402c50 <g_s1@@Base>:
  402c50:	48 8b 36             	mov    rsi,QWORD PTR [rsi]
  402c53:	31 c0                	xor    eax,eax
  402c55:	e9 86 f4 ff ff       	jmp    4020e0 <syscall@plt>
  402c5a:	66 0f 1f 44 00 00    	nop    WORD PTR [rax+rax*1+0x0]

0000000000402c60 <g_syscall@@Base>:
  402c60:	48 89 f8             	mov    rax,rdi
  402c63:	48 31 f6             	xor    rsi,rsi
  402c66:	48 31 f6             	xor    rsi,rsi
  402c69:	48 31 d2             	xor    rdx,rdx
  402c6c:	0f 05                	syscall
  402c6e:	31 c0                	xor    eax,eax
  402c70:	c3                   	ret
  402c71:	66 66 66 66 66 66 2e 	data16 data16 data16 data16 data16 cs nop WORD PTR [rax+rax*1+0x0]
  402c78:	0f 1f 84 00 00 00 00 
  402c7f:	00 

0000000000402c80 <g_syscall2@@Base>:
  402c80:	48 89 f8             	mov    rax,rdi
  402c83:	48 89 f7             	mov    rdi,rsi
  402c86:	48 31 f6             	xor    rsi,rsi
  402c89:	48 31 d2             	xor    rdx,rdx
  402c8c:	0f 05                	syscall
  402c8e:	31 c0                	xor    eax,eax
  402c90:	c3                   	ret
  402c91:	66 66 66 66 66 66 2e 	data16 data16 data16 data16 data16 cs nop WORD PTR [rax+rax*1+0x0]
  402c98:	0f 1f 84 00 00 00 00 
  402c9f:	00 

0000000000402ca0 <g_s2@@Base>:
  402ca0:	48 8b 06             	mov    rax,QWORD PTR [rsi]
  402ca3:	48 8b 56 08          	mov    rdx,QWORD PTR [rsi+0x8]
  402ca7:	48 89 c6             	mov    rsi,rax
  402caa:	31 c0                	xor    eax,eax
  402cac:	e9 2f f4 ff ff       	jmp    4020e0 <syscall@plt>
  402cb1:	66 66 66 66 66 66 2e 	data16 data16 data16 data16 data16 cs nop WORD PTR [rax+rax*1+0x0]
  402cb8:	0f 1f 84 00 00 00 00 
  402cbf:	00 

0000000000402cc0 <g_s3@@Base>:
  402cc0:	48 8b 06             	mov    rax,QWORD PTR [rsi]
  402cc3:	48 8b 56 08          	mov    rdx,QWORD PTR [rsi+0x8]
  402cc7:	48 8b 4e 10          	mov    rcx,QWORD PTR [rsi+0x10]
  402ccb:	48 89 c6             	mov    rsi,rax
  402cce:	31 c0                	xor    eax,eax
  402cd0:	e9 0b f4 ff ff       	jmp    4020e0 <syscall@plt>
  402cd5:	66 66 2e 0f 1f 84 00 	data16 cs nop WORD PTR [rax+rax*1+0x0]
  402cdc:	00 00 00 00 

0000000000402ce0 <g_s4@@Base>:
  402ce0:	48 8b 06             	mov    rax,QWORD PTR [rsi]
  402ce3:	48 8b 56 08          	mov    rdx,QWORD PTR [rsi+0x8]
  402ce7:	48 8b 4e 18          	mov    rcx,QWORD PTR [rsi+0x18]
  402ceb:	4c 8b 46 20          	mov    r8,QWORD PTR [rsi+0x20]
  402cef:	48 89 c6             	mov    rsi,rax
  402cf2:	31 c0                	xor    eax,eax
  402cf4:	e9 e7 f3 ff ff       	jmp    4020e0 <syscall@plt>
  402cf9:	0f 1f 80 00 00 00 00 	nop    DWORD PTR [rax+0x0]

0000000000402d00 <g_subxy@@Base>:
  402d00:	48 89 f8             	mov    rax,rdi
  402d03:	48 29 f0             	sub    rax,rsi
  402d06:	c3                   	ret
  402d07:	66 0f 1f 84 00 00 00 	nop    WORD PTR [rax+rax*1+0x0]
  402d0e:	00 00 

0000000000402d10 <g_subyx@@Base>:
  402d10:	48 89 f0             	mov    rax,rsi
  402d13:	48 29 f8             	sub    rax,rdi
  402d16:	c3                   	ret
  402d17:	66 0f 1f 84 00 00 00 	nop    WORD PTR [rax+rax*1+0x0]
  402d1e:	00 00 

0000000000402d20 <g_st@@Base>:
  402d20:	48 89 37             	mov    QWORD PTR [rdi],rsi
  402d23:	31 c0                	xor    eax,eax
  402d25:	c3                   	ret
  402d26:	66 2e 0f 1f 84 00 00 	cs nop WORD PTR [rax+rax*1+0x0]
  402d2d:	00 00 00 

0000000000402d30 <g_st2@@Base>:
  402d30:	48 89 3e             	mov    QWORD PTR [rsi],rdi
  402d33:	31 c0                	xor    eax,eax
  402d35:	c3                   	ret
  402d36:	66 2e 0f 1f 84 00 00 	cs nop WORD PTR [rax+rax*1+0x0]
  402d3d:	00 00 00 

0000000000402d40 <g_st3@@Base>:
  402d40:	48 89 f8             	mov    rax,rdi
  402d43:	48 89 36             	mov    QWORD PTR [rsi],rsi
  402d46:	c3                   	ret
  402d47:	66 0f 1f 84 00 00 00 	nop    WORD PTR [rax+rax*1+0x0]
  402d4e:	00 00 

0000000000402d50 <g_st4@@Base>:
  402d50:	48 89 f0             	mov    rax,rsi
  402d53:	48 89 3f             	mov    QWORD PTR [rdi],rdi
  402d56:	c3                   	ret
  402d57:	66 0f 1f 84 00 00 00 	nop    WORD PTR [rax+rax*1+0x0]
  402d5e:	00 00 

0000000000402d60 <g_st5@@Base>:
  402d60:	48 89 f0             	mov    rax,rsi
  402d63:	48 89 3f             	mov    QWORD PTR [rdi],rdi
  402d66:	c3                   	ret
  402d67:	66 0f 1f 84 00 00 00 	nop    WORD PTR [rax+rax*1+0x0]
  402d6e:	00 00 

0000000000402d70 <g_ld@@Base>:
  402d70:	48 8b 07             	mov    rax,QWORD PTR [rdi]
  402d73:	c3                   	ret
  402d74:	66 66 66 2e 0f 1f 84 	data16 data16 cs nop WORD PTR [rax+rax*1+0x0]
  402d7b:	00 00 00 00 00 

0000000000402d80 <g_ld2@@Base>:
  402d80:	48 8b 06             	mov    rax,QWORD PTR [rsi]
  402d83:	c3                   	ret
  402d84:	66 66 66 2e 0f 1f 84 	data16 data16 cs nop WORD PTR [rax+rax*1+0x0]
  402d8b:	00 00 00 00 00 

0000000000402d90 <g3@@Base>:
  402d90:	48 89 f8             	mov    rax,rdi
  402d93:	48 89 f7             	mov    rdi,rsi
  402d96:	ff e0                	jmp    rax
  402d98:	0f 1f 84 00 00 00 00 	nop    DWORD PTR [rax+rax*1+0x0]
  402d9f:	00 

0000000000402da0 <g4@@Base>:
  402da0:	ff e6                	jmp    rsi
  402da2:	66 66 66 66 66 2e 0f 	data16 data16 data16 data16 cs nop WORD PTR [rax+rax*1+0x0]
  402da9:	1f 84 00 00 00 00 00 

0000000000402db0 <g_icall2@@Base>:
  402db0:	ff e7                	jmp    rdi
  402db2:	66 66 66 66 66 2e 0f 	data16 data16 data16 data16 cs nop WORD PTR [rax+rax*1+0x0]
  402db9:	1f 84 00 00 00 00 00 

0000000000402dc0 <g_leak1@@Base>:
  402dc0:	48 8d 05 49 fe ff ff 	lea    rax,[rip+0xfffffffffffffe49]        # 402c10 <gaddyy@@Base>
  402dc7:	48 25 00 f0 ff ff    	and    rax,0xfffffffffffff000
  402dcd:	c3                   	ret
  402dce:	66 90                	xchg   ax,ax

0000000000402dd0 <g_printf@@Base>:
  402dd0:	50                   	push   rax
  402dd1:	48 89 fe             	mov    rsi,rdi
  402dd4:	48 8d 3d 4c 03 00 00 	lea    rdi,[rip+0x34c]        # 403127 <_IO_stdin_used@@Base+0x127>
  402ddb:	31 c0                	xor    eax,eax
  402ddd:	e8 9e f2 ff ff       	call   402080 <printf@plt>
  402de2:	31 c0                	xor    eax,eax
  402de4:	59                   	pop    rcx
  402de5:	c3                   	ret
  402de6:	66 2e 0f 1f 84 00 00 	cs nop WORD PTR [rax+rax*1+0x0]
  402ded:	00 00 00 

0000000000402df0 <vuln_leak@@Base>:
  402df0:	41 56                	push   r14
  402df2:	53                   	push   rbx
  402df3:	50                   	push   rax
  402df4:	48 89 fb             	mov    rbx,rdi
  402df7:	4c 8d 35 2c 03 00 00 	lea    r14,[rip+0x32c]        # 40312a <_IO_stdin_used@@Base+0x12a>
  402dfe:	48 8d 35 eb ff ff ff 	lea    rsi,[rip+0xffffffffffffffeb]        # 402df0 <vuln_leak@@Base>
  402e05:	4c 89 f7             	mov    rdi,r14
  402e08:	31 c0                	xor    eax,eax
  402e0a:	e8 71 f2 ff ff       	call   402080 <printf@plt>
  402e0f:	4c 89 f7             	mov    rdi,r14
  402e12:	48 89 de             	mov    rsi,rbx
  402e15:	31 c0                	xor    eax,eax
  402e17:	48 83 c4 08          	add    rsp,0x8
  402e1b:	5b                   	pop    rbx
  402e1c:	41 5e                	pop    r14
  402e1e:	e9 5d f2 ff ff       	jmp    402080 <printf@plt>
  402e23:	66 66 66 66 2e 0f 1f 	data16 data16 data16 cs nop WORD PTR [rax+rax*1+0x0]
  402e2a:	84 00 00 00 00 00 

0000000000402e30 <vuln_overflow@@Base>:
  402e30:	41 57                	push   r15
  402e32:	41 56                	push   r14
  402e34:	53                   	push   rbx
  402e35:	4c 8b 35 8c 21 00 00 	mov    r14,QWORD PTR [rip+0x218c]        # 404fc8 <__safestack_unsafe_stack_ptr@@Base+0x404fc8>
  402e3c:	64 4d 8b 3e          	mov    r15,QWORD PTR fs:[r14]
  402e40:	49 8d 87 f0 fe ff ff 	lea    rax,[r15-0x110]
  402e47:	64 49 89 06          	mov    QWORD PTR fs:[r14],rax
  402e4b:	48 8d 3d 07 03 00 00 	lea    rdi,[rip+0x307]        # 403159 <_IO_stdin_used@@Base+0x159>
  402e52:	e8 09 f2 ff ff       	call   402060 <puts@plt>
  402e57:	49 8d 9f f8 fe ff ff 	lea    rbx,[r15-0x108]
  402e5e:	48 89 df             	mov    rdi,rbx
  402e61:	e8 9a f2 ff ff       	call   402100 <gets@plt>
  402e66:	48 89 df             	mov    rdi,rbx
  402e69:	31 f6                	xor    esi,esi
  402e6b:	ba 0a 00 00 00       	mov    edx,0xa
  402e70:	e8 7b f2 ff ff       	call   4020f0 <strtol@plt>
  402e75:	48 89 c3             	mov    rbx,rax
  402e78:	48 8d 3d e4 02 00 00 	lea    rdi,[rip+0x2e4]        # 403163 <_IO_stdin_used@@Base+0x163>
  402e7f:	e8 dc f1 ff ff       	call   402060 <puts@plt>
  402e84:	48 63 c3             	movsxd rax,ebx
  402e87:	48 c1 e0 04          	shl    rax,0x4
  402e8b:	49 8d 3c 07          	lea    rdi,[r15+rax*1]
  402e8f:	48 81 c7 00 ff ff ff 	add    rdi,0xffffffffffffff00
  402e96:	e8 65 f2 ff ff       	call   402100 <gets@plt>
  402e9b:	64 4d 89 3e          	mov    QWORD PTR fs:[r14],r15
  402e9f:	5b                   	pop    rbx
  402ea0:	41 5e                	pop    r14
  402ea2:	41 5f                	pop    r15
  402ea4:	c3                   	ret
  402ea5:	66 66 2e 0f 1f 84 00 	data16 cs nop WORD PTR [rax+rax*1+0x0]
  402eac:	00 00 00 00 

0000000000402eb0 <main@@Base>:
  402eb0:	          41 57                	push   r15
  402eb2:	          41 56                	push   r14
  402eb4:	          41 54                	push   r12
  402eb6:	          53                   	push   rbx
  402eb7:	          50                   	push   rax
  402eb8:	          4c 8b 35 09 21 00 00 	mov    r14,QWORD PTR [rip+0x2109]        # 404fc8 <__safestack_unsafe_stack_ptr@@Base+0x404fc8>
  402ebf:	          64 4d 8b 3e          	mov    r15,QWORD PTR fs:[r14]
  402ec3:	          49 8d 9f 00 fc ff ff 	lea    rbx,[r15-0x400]
  402eca:	          64 49 89 1e          	mov    QWORD PTR fs:[r14],rbx
  402ece:	          45 31 e4             	xor    r12d,r12d
  402ed1:	          ba 00 04 00 00       	mov    edx,0x400
  402ed6:	          48 89 df             	mov    rdi,rbx
  402ed9:	          31 f6                	xor    esi,esi
  402edb:	          e8 c0 f1 ff ff       	call   4020a0 <memset@plt>
  402ee0:	          48 89 df             	mov    rdi,rbx
  402ee3:	          e8 08 ff ff ff       	call   402df0 <vuln_leak@@Base>
  402ee8:	          e8 43 ff ff ff       	call   402e30 <vuln_overflow@@Base>
  402eed:	          31 ff                	xor    edi,edi
  402eef:	          31 db                	xor    ebx,ebx
  402ef1:	      /-- eb 19                	jmp    402f0c <main@@Base+0x5c>
  402ef3:	      |   66 66 66 66 2e 0f 1f 	data16 data16 data16 cs nop WORD PTR [rax+rax*1+0x0]
  402efa:	      |   84 00 00 00 00 00 
  402f00:	/-----|-> 49 ff c4             	inc    r12
  402f03:	|     |   49 81 fc 80 00 00 00 	cmp    r12,0x80
  402f0a:	|  /--|-- 74 1e                	je     402f2a <main@@Base+0x7a>
  402f0c:	|  |  \-> 4b 83 bc e7 00 fc ff 	cmp    QWORD PTR [r15+r12*8-0x400],0x0
  402f13:	|  |      ff 00 
  402f15:	+--|----- 74 e9                	je     402f00 <main@@Base+0x50>
  402f17:	|  |      48 89 de             	mov    rsi,rbx
  402f1a:	|  |      43 ff 94 e7 00 fc ff 	call   QWORD PTR [r15+r12*8-0x400]
  402f21:	|  |      ff 
  402f22:	|  |      48 89 df             	mov    rdi,rbx
  402f25:	|  |      48 89 c3             	mov    rbx,rax
  402f28:	\--|----- eb d6                	jmp    402f00 <main@@Base+0x50>
  402f2a:	   \----> 48 8d 3d fd 01 00 00 	lea    rdi,[rip+0x1fd]        # 40312e <_IO_stdin_used@@Base+0x12e>
  402f31:	          e8 9a fe ff ff       	call   402dd0 <g_printf@@Base>
  402f36:	          64 4d 89 3e          	mov    QWORD PTR fs:[r14],r15
  402f3a:	          31 c0                	xor    eax,eax
  402f3c:	          48 83 c4 08          	add    rsp,0x8
  402f40:	          5b                   	pop    rbx
  402f41:	          41 5c                	pop    r12
  402f43:	          41 5e                	pop    r14
  402f45:	          41 5f                	pop    r15
  402f47:	          c3                   	ret

Disassembly of section .fini:

0000000000402f48 <.fini>:
  402f48:	f3 0f 1e fa          	endbr64
  402f4c:	48 83 ec 08          	sub    rsp,0x8
  402f50:	48 83 c4 08          	add    rsp,0x8
  402f54:	c3                   	ret

Script done on 2025-05-28 04:20:22+09:00 [COMMAND_EXIT_CODE="0"]
