
exploitme:     file format elf64-x86-64
exploitme
architecture: i386:x86-64, flags 0x00000112:
EXEC_P, HAS_SYMS, D_PAGED
start address 0x0000000000401090

Program Header:
    PHDR off    0x0000000000000040 vaddr 0x0000000000400040 paddr 0x0000000000400040 align 2**3
         filesz 0x00000000000002d8 memsz 0x00000000000002d8 flags r--
  INTERP off    0x0000000000000318 vaddr 0x0000000000400318 paddr 0x0000000000400318 align 2**0
         filesz 0x000000000000001c memsz 0x000000000000001c flags r--
    LOAD off    0x0000000000000000 vaddr 0x0000000000400000 paddr 0x0000000000400000 align 2**12
         filesz 0x0000000000000608 memsz 0x0000000000000608 flags r--
    LOAD off    0x0000000000001000 vaddr 0x0000000000401000 paddr 0x0000000000401000 align 2**12
         filesz 0x00000000000005f9 memsz 0x00000000000005f9 flags r-x
    LOAD off    0x0000000000002000 vaddr 0x0000000000402000 paddr 0x0000000000402000 align 2**12
         filesz 0x00000000000006a4 memsz 0x00000000000006a4 flags r--
    LOAD off    0x0000000000002df8 vaddr 0x0000000000403df8 paddr 0x0000000000403df8 align 2**12
         filesz 0x0000000000000288 memsz 0x0000000000000290 flags rw-
 DYNAMIC off    0x0000000000002e08 vaddr 0x0000000000403e08 paddr 0x0000000000403e08 align 2**3
         filesz 0x00000000000001d0 memsz 0x00000000000001d0 flags rw-
    NOTE off    0x0000000000000338 vaddr 0x0000000000400338 paddr 0x0000000000400338 align 2**3
         filesz 0x0000000000000020 memsz 0x0000000000000020 flags r--
    NOTE off    0x0000000000000358 vaddr 0x0000000000400358 paddr 0x0000000000400358 align 2**2
         filesz 0x0000000000000044 memsz 0x0000000000000044 flags r--
0x6474e553 off    0x0000000000000338 vaddr 0x0000000000400338 paddr 0x0000000000400338 align 2**3
         filesz 0x0000000000000020 memsz 0x0000000000000020 flags r--
EH_FRAME off    0x0000000000002058 vaddr 0x0000000000402058 paddr 0x0000000000402058 align 2**2
         filesz 0x00000000000001b4 memsz 0x00000000000001b4 flags r--
   STACK off    0x0000000000000000 vaddr 0x0000000000000000 paddr 0x0000000000000000 align 2**4
         filesz 0x0000000000000000 memsz 0x0000000000000000 flags rw-
   RELRO off    0x0000000000002df8 vaddr 0x0000000000403df8 paddr 0x0000000000403df8 align 2**0
         filesz 0x0000000000000208 memsz 0x0000000000000208 flags r--

Dynamic Section:
  NEEDED               libc.so.6
  INIT                 0x0000000000401000
  FINI                 0x00000000004015ec
  INIT_ARRAY           0x0000000000403df8
  INIT_ARRAYSZ         0x0000000000000008
  FINI_ARRAY           0x0000000000403e00
  FINI_ARRAYSZ         0x0000000000000008
  GNU_HASH             0x00000000004003a0
  STRTAB               0x0000000000400498
  SYMTAB               0x00000000004003c0
  STRSZ                0x000000000000006a
  SYMENT               0x0000000000000018
  DEBUG                0x0000000000000000
  PLTGOT               0x0000000000403fe8
  PLTRELSZ             0x0000000000000090
  PLTREL               0x0000000000000007
  JMPREL               0x0000000000400578
  RELA                 0x0000000000400548
  RELASZ               0x0000000000000030
  RELAENT              0x0000000000000018
  VERNEED              0x0000000000400518
  VERNEEDNUM           0x0000000000000001
  VERSYM               0x0000000000400502

Version References:
  required from libc.so.6:
    0x09691a75 0x00 03 GLIBC_2.2.5
    0x069691b4 0x00 02 GLIBC_2.34

Sections:
Idx Name          Size      VMA               LMA               File off  Algn
  0 .interp       0000001c  0000000000400318  0000000000400318  00000318  2**0
                  CONTENTS, ALLOC, LOAD, READONLY, DATA
  1 .note.gnu.property 00000020  0000000000400338  0000000000400338  00000338  2**3
                  CONTENTS, ALLOC, LOAD, READONLY, DATA
  2 .note.gnu.build-id 00000024  0000000000400358  0000000000400358  00000358  2**2
                  CONTENTS, ALLOC, LOAD, READONLY, DATA
  3 .note.ABI-tag 00000020  000000000040037c  000000000040037c  0000037c  2**2
                  CONTENTS, ALLOC, LOAD, READONLY, DATA
  4 .gnu.hash     0000001c  00000000004003a0  00000000004003a0  000003a0  2**3
                  CONTENTS, ALLOC, LOAD, READONLY, DATA
  5 .dynsym       000000d8  00000000004003c0  00000000004003c0  000003c0  2**3
                  CONTENTS, ALLOC, LOAD, READONLY, DATA
  6 .dynstr       0000006a  0000000000400498  0000000000400498  00000498  2**0
                  CONTENTS, ALLOC, LOAD, READONLY, DATA
  7 .gnu.version  00000012  0000000000400502  0000000000400502  00000502  2**1
                  CONTENTS, ALLOC, LOAD, READONLY, DATA
  8 .gnu.version_r 00000030  0000000000400518  0000000000400518  00000518  2**3
                  CONTENTS, ALLOC, LOAD, READONLY, DATA
  9 .rela.dyn     00000030  0000000000400548  0000000000400548  00000548  2**3
                  CONTENTS, ALLOC, LOAD, READONLY, DATA
 10 .rela.plt     00000090  0000000000400578  0000000000400578  00000578  2**3
                  CONTENTS, ALLOC, LOAD, READONLY, DATA
 11 .init         0000001b  0000000000401000  0000000000401000  00001000  2**2
                  CONTENTS, ALLOC, LOAD, READONLY, CODE
 12 .plt          00000070  0000000000401020  0000000000401020  00001020  2**4
                  CONTENTS, ALLOC, LOAD, READONLY, CODE
 13 .text         0000055b  0000000000401090  0000000000401090  00001090  2**4
                  CONTENTS, ALLOC, LOAD, READONLY, CODE
 14 .fini         0000000d  00000000004015ec  00000000004015ec  000015ec  2**2
                  CONTENTS, ALLOC, LOAD, READONLY, CODE
 15 .rodata       00000058  0000000000402000  0000000000402000  00002000  2**2
                  CONTENTS, ALLOC, LOAD, READONLY, DATA
 16 .eh_frame_hdr 000001b4  0000000000402058  0000000000402058  00002058  2**2
                  CONTENTS, ALLOC, LOAD, READONLY, DATA
 17 .eh_frame     00000494  0000000000402210  0000000000402210  00002210  2**3
                  CONTENTS, ALLOC, LOAD, READONLY, DATA
 18 .init_array   00000008  0000000000403df8  0000000000403df8  00002df8  2**3
                  CONTENTS, ALLOC, LOAD, DATA
 19 .fini_array   00000008  0000000000403e00  0000000000403e00  00002e00  2**3
                  CONTENTS, ALLOC, LOAD, DATA
 20 .dynamic      000001d0  0000000000403e08  0000000000403e08  00002e08  2**3
                  CONTENTS, ALLOC, LOAD, DATA
 21 .got          00000010  0000000000403fd8  0000000000403fd8  00002fd8  2**3
                  CONTENTS, ALLOC, LOAD, DATA
 22 .got.plt      00000048  0000000000403fe8  0000000000403fe8  00002fe8  2**3
                  CONTENTS, ALLOC, LOAD, DATA
 23 .data         00000050  0000000000404030  0000000000404030  00003030  2**4
                  CONTENTS, ALLOC, LOAD, DATA
 24 .bss          00000008  0000000000404080  0000000000404080  00003080  2**0
                  ALLOC
SYMBOL TABLE:
no symbols


Contents of section .interp:
 400318 2f6c6962 36342f6c 642d6c69 6e75782d  /lib64/ld-linux-
 400328 7838362d 36342e73 6f2e3200           x86-64.so.2.    
Contents of section .note.gnu.property:
 400338 04000000 10000000 05000000 474e5500  ............GNU.
 400348 028000c0 04000000 01000000 00000000  ................
Contents of section .note.gnu.build-id:
 400358 04000000 14000000 03000000 474e5500  ............GNU.
 400368 4fc0884c 9948e40a 10ab7f30 dc117f56  O..L.H.....0...V
 400378 a3b2192d                             ...-            
Contents of section .note.ABI-tag:
 40037c 04000000 10000000 01000000 474e5500  ............GNU.
 40038c 00000000 03000000 02000000 00000000  ................
Contents of section .gnu.hash:
 4003a0 01000000 01000000 01000000 00000000  ................
 4003b0 00000000 00000000 00000000           ............    
Contents of section .dynsym:
 4003c0 00000000 00000000 00000000 00000000  ................
 4003d0 00000000 00000000 12000000 12000000  ................
 4003e0 00000000 00000000 00000000 00000000  ................
 4003f0 01000000 12000000 00000000 00000000  ................
 400400 00000000 00000000 2b000000 12000000  ........+.......
 400410 00000000 00000000 00000000 00000000  ................
 400420 24000000 12000000 00000000 00000000  $...............
 400430 00000000 00000000 32000000 12000000  ........2.......
 400440 00000000 00000000 00000000 00000000  ................
 400450 5b000000 20000000 00000000 00000000  [... ...........
 400460 00000000 00000000 0b000000 12000000  ................
 400470 00000000 00000000 00000000 00000000  ................
 400480 06000000 12000000 00000000 00000000  ................
 400490 00000000 00000000                    ........        
Contents of section .dynstr:
 400498 00707574 73006765 74730073 7472746f  .puts.gets.strto
 4004a8 6c005f5f 6c696263 5f737461 72745f6d  l.__libc_start_m
 4004b8 61696e00 6d656d73 65740070 72696e74  ain.memset.print
 4004c8 66007379 7363616c 6c006c69 62632e73  f.syscall.libc.s
 4004d8 6f2e3600 474c4942 435f322e 322e3500  o.6.GLIBC_2.2.5.
 4004e8 474c4942 435f322e 3334005f 5f676d6f  GLIBC_2.34.__gmo
 4004f8 6e5f7374 6172745f 5f00               n_start__.      
Contents of section .gnu.version:
 400502 00000200 03000300 03000300 01000300  ................
 400512 0300                                 ..              
Contents of section .gnu.version_r:
 400518 01000200 3a000000 10000000 00000000  ....:...........
 400528 751a6909 00000300 44000000 10000000  u.i.....D.......
 400538 b4919606 00000200 50000000 00000000  ........P.......
Contents of section .rela.dyn:
 400548 d83f4000 00000000 06000000 01000000  .?@.............
 400558 00000000 00000000 e03f4000 00000000  .........?@.....
 400568 06000000 06000000 00000000 00000000  ................
Contents of section .rela.plt:
 400578 00404000 00000000 07000000 02000000  .@@.............
 400588 00000000 00000000 08404000 00000000  .........@@.....
 400598 07000000 03000000 00000000 00000000  ................
 4005a8 10404000 00000000 07000000 04000000  .@@.............
 4005b8 00000000 00000000 18404000 00000000  .........@@.....
 4005c8 07000000 05000000 00000000 00000000  ................
 4005d8 20404000 00000000 07000000 07000000   @@.............
 4005e8 00000000 00000000 28404000 00000000  ........(@@.....
 4005f8 07000000 08000000 00000000 00000000  ................
Contents of section .init:
 401000 f30f1efa 4883ec08 488b05d1 2f000048  ....H...H.../..H
 401010 85c07402 ffd04883 c408c3             ..t...H....     
Contents of section .plt:
 401020 ff35ca2f 0000ff25 cc2f0000 0f1f4000  .5./...%./....@.
 401030 ff25ca2f 00006800 000000e9 e0ffffff  .%./..h.........
 401040 ff25c22f 00006801 000000e9 d0ffffff  .%./..h.........
 401050 ff25ba2f 00006802 000000e9 c0ffffff  .%./..h.........
 401060 ff25b22f 00006803 000000e9 b0ffffff  .%./..h.........
 401070 ff25aa2f 00006804 000000e9 a0ffffff  .%./..h.........
 401080 ff25a22f 00006805 000000e9 90ffffff  .%./..h.........
Contents of section .text:
 401090 f30f1efa 31ed4989 d15e4889 e24883e4  ....1.I..^H..H..
 4010a0 f0505445 31c031c9 48c7c770 154000ff  .PTE1.1.H..p.@..
 4010b0 15232f00 00f4662e 0f1f8400 00000000  .#/...f.........
 4010c0 f30f1efa c3662e0f 1f840000 00000090  .....f..........
 4010d0 b8804040 00483d80 40400074 13b80000  ..@@.H=.@@.t....
 4010e0 00004885 c07409bf 80404000 ffe06690  ..H..t...@@...f.
 4010f0 c366662e 0f1f8400 00000000 0f1f4000  .ff...........@.
 401100 be804040 004881ee 80404000 4889f048  ..@@.H...@@.H..H
 401110 c1ee3f48 c1f80348 01c648d1 fe7411b8  ..?H...H..H..t..
 401120 00000000 4885c074 07bf8040 4000ffe0  ....H..t...@@...
 401130 c366662e 0f1f8400 00000000 0f1f4000  .ff...........@.
 401140 f30f1efa 803d352f 00000075 13554889  .....=5/...u.UH.
 401150 e5e87aff ffffc605 232f0000 015dc390  ..z.....#/...]..
 401160 c366662e 0f1f8400 00000000 0f1f4000  .ff...........@.
 401170 f30f1efa eb8a662e 0f1f8400 00000000  ......f.........
 401180 b8010000 00c3662e 0f1f8400 00000000  ......f.........
 401190 31c0c366 6666662e 0f1f8400 00000000  1..ffff.........
 4011a0 b8340000 00c3662e 0f1f8400 00000000  .4....f.........
 4011b0 b8350000 00c3662e 0f1f8400 00000000  .5....f.........
 4011c0 31c0c366 6666662e 0f1f8400 00000000  1..ffff.........
 4011d0 4889c6c3 6666662e 0f1f8400 00000000  H...fff.........
 4011e0 4889c7c3 6666662e 0f1f8400 00000000  H...fff.........
 4011f0 488b0549 2e0000c3 0f1f8400 00000000  H..I............
 401200 488b0539 2e0000c3 0f1f8400 00000000  H..9............
 401210 488b0529 2e0000c3 0f1f8400 00000000  H..)............
 401220 4889c2c3 6666662e 0f1f8400 00000000  H...fff.........
 401230 4889f0c3 6666662e 0f1f8400 00000000  H...fff.........
 401240 4889f8c3 6666662e 0f1f8400 00000000  H...fff.........
 401250 4889d0c3 6666662e 0f1f8400 00000000  H...fff.........
 401260 4831f6c3 6666662e 0f1f8400 00000000  H1..fff.........
 401270 4831c0c3 6666662e 0f1f8400 00000000  H1..fff.........
 401280 4883c008 c366662e 0f1f8400 00000000  H....ff.........
 401290 4883c020 c366662e 0f1f8400 00000000  H.. .ff.........
 4012a0 4883c03a c366662e 0f1f8400 00000000  H..:.ff.........
 4012b0 4883c03b c366662e 0f1f8400 00000000  H..;.ff.........
 4012c0 4883c001 c366662e 0f1f8400 00000000  H....ff.........
 4012d0 48c7c200 000000c3 0f1f8400 00000000  H...............
 4012e0 48c7c200 00000052 5ac3660f 1f440000  H......RZ.f..D..
 4012f0 488d4702 c366662e 0f1f8400 00000000  H.G..ff.........
 401300 488d4701 c366662e 0f1f8400 00000000  H.G..ff.........
 401310 488d0437 c366662e 0f1f8400 00000000  H..7.ff.........
 401320 488d0437 4801d0c3 0f1f8400 00000000  H..7H...........
 401330 488b3631 c0e926fd ffff660f 1f440000  H.61..&...f..D..
 401340 4889f848 31f64831 f64831d2 0f0531c0  H..H1.H1.H1...1.
 401350 c3666666 6666662e 0f1f8400 00000000  .ffffff.........
 401360 4889f848 89f74831 f64831d2 0f0531c0  H..H..H1.H1...1.
 401370 c3666666 6666662e 0f1f8400 00000000  .ffffff.........
 401380 488b0648 8b560848 89c631c0 e9cffcff  H..H.V.H..1.....
 401390 ff666666 6666662e 0f1f8400 00000000  .ffffff.........
 4013a0 488b0648 8b560848 8b4e1048 89c631c0  H..H.V.H.N.H..1.
 4013b0 e9abfcff ff66662e 0f1f8400 00000000  .....ff.........
 4013c0 488b0648 8b560848 8b4e184c 8b462048  H..H.V.H.N.L.F H
 4013d0 89c631c0 e987fcff ff0f1f80 00000000  ..1.............
 4013e0 4889f848 29f0c366 0f1f8400 00000000  H..H)..f........
 4013f0 4889f048 29f8c366 0f1f8400 00000000  H..H)..f........
 401400 48893731 c0c3662e 0f1f8400 00000000  H.71..f.........
 401410 48893e31 c0c3662e 0f1f8400 00000000  H.>1..f.........
 401420 4889f848 8936c366 0f1f8400 00000000  H..H.6.f........
 401430 4889f048 893fc366 0f1f8400 00000000  H..H.?.f........
 401440 4889f048 893fc366 0f1f8400 00000000  H..H.?.f........
 401450 488b07c3 6666662e 0f1f8400 00000000  H...fff.........
 401460 488b06c3 6666662e 0f1f8400 00000000  H...fff.........
 401470 4889f848 89f7ffe0 0f1f8400 00000000  H..H............
 401480 ffe66666 6666662e 0f1f8400 00000000  ..fffff.........
 401490 ffe76666 6666662e 0f1f8400 00000000  ..fffff.........
 4014a0 488d0549 feffff48 2500f0ff ffc36690  H..I...H%.....f.
 4014b0 504889fe 488d3d51 0b000031 c0e87efb  PH..H.=Q...1..~.
 4014c0 ffff31c0 59c3662e 0f1f8400 00000000  ..1.Y.f.........
 4014d0 41565350 4889fb4c 8d35310b 0000488d  AVSPH..L.51...H.
 4014e0 35ebffff ff4c89f7 31c0e851 fbffff4c  5....L..1..Q...L
 4014f0 89f74889 de31c048 83c4085b 415ee93d  ..H..1.H...[A^.=
 401500 fbffff66 6666662e 0f1f8400 00000000  ...ffff.........
 401510 534881ec 10010000 488d3d1f 0b0000e8  SH......H.=.....
 401520 0cfbffff 488d5c24 084889df e84ffbff  ....H.\$.H...O..
 401530 ff4889df 31f6ba0a 000000e8 30fbffff  .H..1.......0...
 401540 4889c348 8d3dfe0a 0000e8e1 faffff48  H..H.=.........H
 401550 63c348c1 e004488d 3c044883 c710e81d  c.H...H.<.H.....
 401560 fbffff48 81c41001 00005bc3 0f1f4000  ...H......[...@.
 401570 41565348 81ec0804 00004889 e34531f6  AVSH......H..E1.
 401580 ba000400 004889df 31f6e8c1 faffff48  .....H..1......H
 401590 89dfe839 ffffffe8 74ffffff 31ff31db  ...9....t...1.1.
 4015a0 eb1a6666 6666662e 0f1f8400 00000000  ..fffff.........
 4015b0 49ffc649 81fe8000 00007416 4a833cf4  I..I......t.J.<.
 4015c0 0074ed48 89de42ff 14f44889 df4889c3  .t.H..B...H..H..
 4015d0 ebde488d 3d3a0a00 00e8d2fe ffff31c0  ..H.=:........1.
 4015e0 4881c408 0400005b 415ec3             H......[A^.     
Contents of section .fini:
 4015ec f30f1efa 4883ec08 4883c408 c3        ....H...H....   
Contents of section .rodata:
 402000 01000200 2f62696e 2f736800 25730025  ..../bin/sh.%s.%
 402010 700a005b 52455355 4c545d20 4e6f7420  p..[RESULT] Not 
 402020 6578706c 6f697465 64203a28 20457869  exploited :( Exi
 402030 74696e67 20736166 656c792e 0a00456e  ting safely...En
 402040 74657220 69643a00 456e7465 72207061  ter id:.Enter pa
 402050 7373776f 72643a00                    ssword:.        
Contents of section .eh_frame_hdr:
 402058 011b033b b4010000 35000000 c8efffff  ...;....5.......
 402068 f8010000 38f0ffff d0010000 68f0ffff  ....8.......h...
 402078 e4010000 28f1ffff 20020000 38f1ffff  ....(... ...8...
 402088 34020000 48f1ffff 48020000 58f1ffff  4...H...H...X...
 402098 5c020000 68f1ffff 70020000 78f1ffff  \...h...p...x...
 4020a8 84020000 88f1ffff 98020000 98f1ffff  ................
 4020b8 ac020000 a8f1ffff c0020000 b8f1ffff  ................
 4020c8 d4020000 c8f1ffff e8020000 d8f1ffff  ................
 4020d8 fc020000 e8f1ffff 10030000 f8f1ffff  ................
 4020e8 24030000 08f2ffff 38030000 18f2ffff  $.......8.......
 4020f8 4c030000 28f2ffff 60030000 38f2ffff  L...(...`...8...
 402108 74030000 48f2ffff 88030000 58f2ffff  t...H.......X...
 402118 9c030000 68f2ffff b0030000 78f2ffff  ....h.......x...
 402128 c4030000 88f2ffff d8030000 98f2ffff  ................
 402138 ec030000 a8f2ffff 00040000 b8f2ffff  ................
 402148 14040000 c8f2ffff 28040000 d8f2ffff  ........(.......
 402158 3c040000 e8f2ffff 50040000 08f3ffff  <.......P.......
 402168 64040000 28f3ffff 78040000 48f3ffff  d...(...x...H...
 402178 8c040000 68f3ffff a0040000 88f3ffff  ....h...........
 402188 b4040000 98f3ffff c8040000 a8f3ffff  ................
 402198 dc040000 b8f3ffff f0040000 c8f3ffff  ................
 4021a8 04050000 d8f3ffff 18050000 e8f3ffff  ................
 4021b8 2c050000 f8f3ffff 40050000 08f4ffff  ,.......@.......
 4021c8 54050000 18f4ffff 68050000 28f4ffff  T.......h...(...
 4021d8 7c050000 38f4ffff 90050000 48f4ffff  |...8.......H...
 4021e8 a4050000 58f4ffff b8050000 78f4ffff  ....X.......x...
 4021f8 d0050000 b8f4ffff f8050000 18f5ffff  ................
 402208 1c060000                             ....            
Contents of section .eh_frame:
 402210 14000000 00000000 017a5200 01781001  .........zR..x..
 402220 1b0c0708 90010000 10000000 1c000000  ................
 402230 60eeffff 26000000 00440710 10000000  `...&....D......
 402240 30000000 7ceeffff 05000000 00000000  0...|...........
 402250 24000000 44000000 c8edffff 70000000  $...D.......p...
 402260 000e1046 0e184a0f 0b770880 003f1a3b  ...F..J..w...?.;
 402270 2a332422 00000000 10000000 6c000000  *3$"........l...
 402280 00efffff 06000000 00000000 10000000  ................
 402290 80000000 fceeffff 03000000 00000000  ................
 4022a0 10000000 94000000 f8eeffff 06000000  ................
 4022b0 00000000 10000000 a8000000 f4eeffff  ................
 4022c0 06000000 00000000 10000000 bc000000  ................
 4022d0 f0eeffff 03000000 00000000 10000000  ................
 4022e0 d0000000 eceeffff 04000000 00000000  ................
 4022f0 10000000 e4000000 e8eeffff 04000000  ................
 402300 00000000 10000000 f8000000 e4eeffff  ................
 402310 08000000 00000000 10000000 0c010000  ................
 402320 e0eeffff 08000000 00000000 10000000  ................
 402330 20010000 dceeffff 08000000 00000000   ...............
 402340 10000000 34010000 d8eeffff 04000000  ....4...........
 402350 00000000 10000000 48010000 d4eeffff  ........H.......
 402360 04000000 00000000 10000000 5c010000  ............\...
 402370 d0eeffff 04000000 00000000 10000000  ................
 402380 70010000 cceeffff 04000000 00000000  p...............
 402390 10000000 84010000 c8eeffff 04000000  ................
 4023a0 00000000 10000000 98010000 c4eeffff  ................
 4023b0 04000000 00000000 10000000 ac010000  ................
 4023c0 c0eeffff 05000000 00000000 10000000  ................
 4023d0 c0010000 bceeffff 05000000 00000000  ................
 4023e0 10000000 d4010000 b8eeffff 05000000  ................
 4023f0 00000000 10000000 e8010000 b4eeffff  ................
 402400 05000000 00000000 10000000 fc010000  ................
 402410 b0eeffff 05000000 00000000 10000000  ................
 402420 10020000 aceeffff 08000000 00000000  ................
 402430 10000000 24020000 a8eeffff 0a000000  ....$...........
 402440 00000000 10000000 38020000 a4eeffff  ........8.......
 402450 05000000 00000000 10000000 4c020000  ............L...
 402460 a0eeffff 05000000 00000000 10000000  ................
 402470 60020000 9ceeffff 05000000 00000000  `...............
 402480 10000000 74020000 98eeffff 08000000  ....t...........
 402490 00000000 10000000 88020000 94eeffff  ................
 4024a0 0a000000 00000000 10000000 9c020000  ................
 4024b0 90eeffff 11000000 00000000 10000000  ................
 4024c0 b0020000 9ceeffff 11000000 00000000  ................
 4024d0 10000000 c4020000 a8eeffff 11000000  ................
 4024e0 00000000 10000000 d8020000 b4eeffff  ................
 4024f0 15000000 00000000 10000000 ec020000  ................
 402500 c0eeffff 19000000 00000000 10000000  ................
 402510 00030000 cceeffff 07000000 00000000  ................
 402520 10000000 14030000 c8eeffff 07000000  ................
 402530 00000000 10000000 28030000 c4eeffff  ........(.......
 402540 06000000 00000000 10000000 3c030000  ............<...
 402550 c0eeffff 06000000 00000000 10000000  ................
 402560 50030000 bceeffff 07000000 00000000  P...............
 402570 10000000 64030000 b8eeffff 07000000  ....d...........
 402580 00000000 10000000 78030000 b4eeffff  ........x.......
 402590 07000000 00000000 10000000 8c030000  ................
 4025a0 b0eeffff 04000000 00000000 10000000  ................
 4025b0 a0030000 aceeffff 04000000 00000000  ................
 4025c0 10000000 b4030000 a8eeffff 08000000  ................
 4025d0 00000000 10000000 c8030000 a4eeffff  ................
 4025e0 02000000 00000000 10000000 dc030000  ................
 4025f0 a0eeffff 02000000 00000000 10000000  ................
 402600 f0030000 9ceeffff 0e000000 00000000  ................
 402610 14000000 04040000 98eeffff 16000000  ................
 402620 00410e10 540e0800 24000000 1c040000  .A..T...$.......
 402630 a0eeffff 33000000 00420e10 410e1841  ....3....B..A..A
 402640 0e208303 8e02670e 18410e10 420e0800  . ....g..A..B...
 402650 20000000 44040000 b8eeffff 5c000000   ...D.......\...
 402660 00410e10 470ea002 83020252 0e10410e  .A..G......R..A.
 402670 08000000 28000000 68040000 f4eeffff  ....(...h.......
 402680 7b000000 00420e10 410e1847 0ea00883  {....B..A..G....
 402690 038e0202 6d0e1841 0e10420e 08000000  ....m..A..B.....
 4026a0 00000000                             ....            
Contents of section .init_array:
 403df8 70114000 00000000                    p.@.....        
Contents of section .fini_array:
 403e00 40114000 00000000                    @.@.....        
Contents of section .dynamic:
 403e08 01000000 00000000 3a000000 00000000  ........:.......
 403e18 0c000000 00000000 00104000 00000000  ..........@.....
 403e28 0d000000 00000000 ec154000 00000000  ..........@.....
 403e38 19000000 00000000 f83d4000 00000000  .........=@.....
 403e48 1b000000 00000000 08000000 00000000  ................
 403e58 1a000000 00000000 003e4000 00000000  .........>@.....
 403e68 1c000000 00000000 08000000 00000000  ................
 403e78 f5feff6f 00000000 a0034000 00000000  ...o......@.....
 403e88 05000000 00000000 98044000 00000000  ..........@.....
 403e98 06000000 00000000 c0034000 00000000  ..........@.....
 403ea8 0a000000 00000000 6a000000 00000000  ........j.......
 403eb8 0b000000 00000000 18000000 00000000  ................
 403ec8 15000000 00000000 00000000 00000000  ................
 403ed8 03000000 00000000 e83f4000 00000000  .........?@.....
 403ee8 02000000 00000000 90000000 00000000  ................
 403ef8 14000000 00000000 07000000 00000000  ................
 403f08 17000000 00000000 78054000 00000000  ........x.@.....
 403f18 07000000 00000000 48054000 00000000  ........H.@.....
 403f28 08000000 00000000 30000000 00000000  ........0.......
 403f38 09000000 00000000 18000000 00000000  ................
 403f48 feffff6f 00000000 18054000 00000000  ...o......@.....
 403f58 ffffff6f 00000000 01000000 00000000  ...o............
 403f68 f0ffff6f 00000000 02054000 00000000  ...o......@.....
 403f78 00000000 00000000 00000000 00000000  ................
 403f88 00000000 00000000 00000000 00000000  ................
 403f98 00000000 00000000 00000000 00000000  ................
 403fa8 00000000 00000000 00000000 00000000  ................
 403fb8 00000000 00000000 00000000 00000000  ................
 403fc8 00000000 00000000 00000000 00000000  ................
Contents of section .got:
 403fd8 00000000 00000000 00000000 00000000  ................
Contents of section .got.plt:
 403fe8 083e4000 00000000 00000000 00000000  .>@.............
 403ff8 00000000 00000000 36104000 00000000  ........6.@.....
 404008 46104000 00000000 56104000 00000000  F.@.....V.@.....
 404018 66104000 00000000 76104000 00000000  f.@.....v.@.....
 404028 86104000 00000000                    ..@.....        
Contents of section .data:
 404030 00000000 00000000 00000000 00000000  ................
 404040 04204000 00000000 00000000 00000000  . @.............
 404050 b0114000 00000000 60134000 00000000  ..@.....`.@.....
 404060 a0144000 00000000 f0114000 00000000  ..@.......@.....
 404070 00124000 00000000 10124000 00000000  ..@.......@.....

Disassembly of section .init:

0000000000401000 <.init>:
  401000:	f3 0f 1e fa          	endbr64
  401004:	48 83 ec 08          	sub    rsp,0x8
  401008:	48 8b 05 d1 2f 00 00 	mov    rax,QWORD PTR [rip+0x2fd1]        # 403fe0 <gets@plt+0x2f60>
  40100f:	48 85 c0             	test   rax,rax
  401012:	74 02                	je     401016 <puts@plt-0x1a>
  401014:	ff d0                	call   rax
  401016:	48 83 c4 08          	add    rsp,0x8
  40101a:	c3                   	ret

Disassembly of section .plt:

0000000000401020 <puts@plt-0x10>:
  401020:	ff 35 ca 2f 00 00    	push   QWORD PTR [rip+0x2fca]        # 403ff0 <gets@plt+0x2f70>
  401026:	ff 25 cc 2f 00 00    	jmp    QWORD PTR [rip+0x2fcc]        # 403ff8 <gets@plt+0x2f78>
  40102c:	0f 1f 40 00          	nop    DWORD PTR [rax+0x0]

0000000000401030 <puts@plt>:
  401030:	ff 25 ca 2f 00 00    	jmp    QWORD PTR [rip+0x2fca]        # 404000 <gets@plt+0x2f80>
  401036:	68 00 00 00 00       	push   0x0
  40103b:	e9 e0 ff ff ff       	jmp    401020 <puts@plt-0x10>

0000000000401040 <printf@plt>:
  401040:	ff 25 c2 2f 00 00    	jmp    QWORD PTR [rip+0x2fc2]        # 404008 <gets@plt+0x2f88>
  401046:	68 01 00 00 00       	push   0x1
  40104b:	e9 d0 ff ff ff       	jmp    401020 <puts@plt-0x10>

0000000000401050 <memset@plt>:
  401050:	ff 25 ba 2f 00 00    	jmp    QWORD PTR [rip+0x2fba]        # 404010 <gets@plt+0x2f90>
  401056:	68 02 00 00 00       	push   0x2
  40105b:	e9 c0 ff ff ff       	jmp    401020 <puts@plt-0x10>

0000000000401060 <syscall@plt>:
  401060:	ff 25 b2 2f 00 00    	jmp    QWORD PTR [rip+0x2fb2]        # 404018 <gets@plt+0x2f98>
  401066:	68 03 00 00 00       	push   0x3
  40106b:	e9 b0 ff ff ff       	jmp    401020 <puts@plt-0x10>

0000000000401070 <strtol@plt>:
  401070:	ff 25 aa 2f 00 00    	jmp    QWORD PTR [rip+0x2faa]        # 404020 <gets@plt+0x2fa0>
  401076:	68 04 00 00 00       	push   0x4
  40107b:	e9 a0 ff ff ff       	jmp    401020 <puts@plt-0x10>

0000000000401080 <gets@plt>:
  401080:	ff 25 a2 2f 00 00    	jmp    QWORD PTR [rip+0x2fa2]        # 404028 <gets@plt+0x2fa8>
  401086:	68 05 00 00 00       	push   0x5
  40108b:	e9 90 ff ff ff       	jmp    401020 <puts@plt-0x10>

Disassembly of section .text:

0000000000401090 <.text>:
  401090:	f3 0f 1e fa          	endbr64
  401094:	31 ed                	xor    ebp,ebp
  401096:	49 89 d1             	mov    r9,rdx
  401099:	5e                   	pop    rsi
  40109a:	48 89 e2             	mov    rdx,rsp
  40109d:	48 83 e4 f0          	and    rsp,0xfffffffffffffff0
  4010a1:	50                   	push   rax
  4010a2:	54                   	push   rsp
  4010a3:	45 31 c0             	xor    r8d,r8d
  4010a6:	31 c9                	xor    ecx,ecx
  4010a8:	48 c7 c7 70 15 40 00 	mov    rdi,0x401570
  4010af:	ff 15 23 2f 00 00    	call   QWORD PTR [rip+0x2f23]        # 403fd8 <gets@plt+0x2f58>
  4010b5:	f4                   	hlt
  4010b6:	66 2e 0f 1f 84 00 00 	cs nop WORD PTR [rax+rax*1+0x0]
  4010bd:	00 00 00 
  4010c0:	f3 0f 1e fa          	endbr64
  4010c4:	c3                   	ret
  4010c5:	66 2e 0f 1f 84 00 00 	cs nop WORD PTR [rax+rax*1+0x0]
  4010cc:	00 00 00 
  4010cf:	90                   	nop
  4010d0:	b8 80 40 40 00       	mov    eax,0x404080
  4010d5:	48 3d 80 40 40 00    	cmp    rax,0x404080
  4010db:	74 13                	je     4010f0 <gets@plt+0x70>
  4010dd:	b8 00 00 00 00       	mov    eax,0x0
  4010e2:	48 85 c0             	test   rax,rax
  4010e5:	74 09                	je     4010f0 <gets@plt+0x70>
  4010e7:	bf 80 40 40 00       	mov    edi,0x404080
  4010ec:	ff e0                	jmp    rax
  4010ee:	66 90                	xchg   ax,ax
  4010f0:	c3                   	ret
  4010f1:	66 66 2e 0f 1f 84 00 	data16 cs nop WORD PTR [rax+rax*1+0x0]
  4010f8:	00 00 00 00 
  4010fc:	0f 1f 40 00          	nop    DWORD PTR [rax+0x0]
  401100:	be 80 40 40 00       	mov    esi,0x404080
  401105:	48 81 ee 80 40 40 00 	sub    rsi,0x404080
  40110c:	48 89 f0             	mov    rax,rsi
  40110f:	48 c1 ee 3f          	shr    rsi,0x3f
  401113:	48 c1 f8 03          	sar    rax,0x3
  401117:	48 01 c6             	add    rsi,rax
  40111a:	48 d1 fe             	sar    rsi,1
  40111d:	74 11                	je     401130 <gets@plt+0xb0>
  40111f:	b8 00 00 00 00       	mov    eax,0x0
  401124:	48 85 c0             	test   rax,rax
  401127:	74 07                	je     401130 <gets@plt+0xb0>
  401129:	bf 80 40 40 00       	mov    edi,0x404080
  40112e:	ff e0                	jmp    rax
  401130:	c3                   	ret
  401131:	66 66 2e 0f 1f 84 00 	data16 cs nop WORD PTR [rax+rax*1+0x0]
  401138:	00 00 00 00 
  40113c:	0f 1f 40 00          	nop    DWORD PTR [rax+0x0]
  401140:	f3 0f 1e fa          	endbr64
  401144:	80 3d 35 2f 00 00 00 	cmp    BYTE PTR [rip+0x2f35],0x0        # 404080 <gets@plt+0x3000>
  40114b:	75 13                	jne    401160 <gets@plt+0xe0>
  40114d:	55                   	push   rbp
  40114e:	48 89 e5             	mov    rbp,rsp
  401151:	e8 7a ff ff ff       	call   4010d0 <gets@plt+0x50>
  401156:	c6 05 23 2f 00 00 01 	mov    BYTE PTR [rip+0x2f23],0x1        # 404080 <gets@plt+0x3000>
  40115d:	5d                   	pop    rbp
  40115e:	c3                   	ret
  40115f:	90                   	nop
  401160:	c3                   	ret
  401161:	66 66 2e 0f 1f 84 00 	data16 cs nop WORD PTR [rax+rax*1+0x0]
  401168:	00 00 00 00 
  40116c:	0f 1f 40 00          	nop    DWORD PTR [rax+0x0]
  401170:	f3 0f 1e fa          	endbr64
  401174:	eb 8a                	jmp    401100 <gets@plt+0x80>
  401176:	66 2e 0f 1f 84 00 00 	cs nop WORD PTR [rax+rax*1+0x0]
  40117d:	00 00 00 
  401180:	b8 01 00 00 00       	mov    eax,0x1
  401185:	c3                   	ret
  401186:	66 2e 0f 1f 84 00 00 	cs nop WORD PTR [rax+rax*1+0x0]
  40118d:	00 00 00 
  401190:	31 c0                	xor    eax,eax
  401192:	c3                   	ret
  401193:	66 66 66 66 2e 0f 1f 	data16 data16 data16 cs nop WORD PTR [rax+rax*1+0x0]
  40119a:	84 00 00 00 00 00 
  4011a0:	b8 34 00 00 00       	mov    eax,0x34
  4011a5:	c3                   	ret
  4011a6:	66 2e 0f 1f 84 00 00 	cs nop WORD PTR [rax+rax*1+0x0]
  4011ad:	00 00 00 
  4011b0:	b8 35 00 00 00       	mov    eax,0x35
  4011b5:	c3                   	ret
  4011b6:	66 2e 0f 1f 84 00 00 	cs nop WORD PTR [rax+rax*1+0x0]
  4011bd:	00 00 00 
  4011c0:	31 c0                	xor    eax,eax
  4011c2:	c3                   	ret
  4011c3:	66 66 66 66 2e 0f 1f 	data16 data16 data16 cs nop WORD PTR [rax+rax*1+0x0]
  4011ca:	84 00 00 00 00 00 
  4011d0:	48 89 c6             	mov    rsi,rax
  4011d3:	c3                   	ret
  4011d4:	66 66 66 2e 0f 1f 84 	data16 data16 cs nop WORD PTR [rax+rax*1+0x0]
  4011db:	00 00 00 00 00 
  4011e0:	48 89 c7             	mov    rdi,rax
  4011e3:	c3                   	ret
  4011e4:	66 66 66 2e 0f 1f 84 	data16 data16 cs nop WORD PTR [rax+rax*1+0x0]
  4011eb:	00 00 00 00 00 
  4011f0:	48 8b 05 49 2e 00 00 	mov    rax,QWORD PTR [rip+0x2e49]        # 404040 <gets@plt+0x2fc0>
  4011f7:	c3                   	ret
  4011f8:	0f 1f 84 00 00 00 00 	nop    DWORD PTR [rax+rax*1+0x0]
  4011ff:	00 
  401200:	48 8b 05 39 2e 00 00 	mov    rax,QWORD PTR [rip+0x2e39]        # 404040 <gets@plt+0x2fc0>
  401207:	c3                   	ret
  401208:	0f 1f 84 00 00 00 00 	nop    DWORD PTR [rax+rax*1+0x0]
  40120f:	00 
  401210:	48 8b 05 29 2e 00 00 	mov    rax,QWORD PTR [rip+0x2e29]        # 404040 <gets@plt+0x2fc0>
  401217:	c3                   	ret
  401218:	0f 1f 84 00 00 00 00 	nop    DWORD PTR [rax+rax*1+0x0]
  40121f:	00 
  401220:	48 89 c2             	mov    rdx,rax
  401223:	c3                   	ret
  401224:	66 66 66 2e 0f 1f 84 	data16 data16 cs nop WORD PTR [rax+rax*1+0x0]
  40122b:	00 00 00 00 00 
  401230:	48 89 f0             	mov    rax,rsi
  401233:	c3                   	ret
  401234:	66 66 66 2e 0f 1f 84 	data16 data16 cs nop WORD PTR [rax+rax*1+0x0]
  40123b:	00 00 00 00 00 
  401240:	48 89 f8             	mov    rax,rdi
  401243:	c3                   	ret
  401244:	66 66 66 2e 0f 1f 84 	data16 data16 cs nop WORD PTR [rax+rax*1+0x0]
  40124b:	00 00 00 00 00 
  401250:	48 89 d0             	mov    rax,rdx
  401253:	c3                   	ret
  401254:	66 66 66 2e 0f 1f 84 	data16 data16 cs nop WORD PTR [rax+rax*1+0x0]
  40125b:	00 00 00 00 00 
  401260:	48 31 f6             	xor    rsi,rsi
  401263:	c3                   	ret
  401264:	66 66 66 2e 0f 1f 84 	data16 data16 cs nop WORD PTR [rax+rax*1+0x0]
  40126b:	00 00 00 00 00 
  401270:	48 31 c0             	xor    rax,rax
  401273:	c3                   	ret
  401274:	66 66 66 2e 0f 1f 84 	data16 data16 cs nop WORD PTR [rax+rax*1+0x0]
  40127b:	00 00 00 00 00 
  401280:	48 83 c0 08          	add    rax,0x8
  401284:	c3                   	ret
  401285:	66 66 2e 0f 1f 84 00 	data16 cs nop WORD PTR [rax+rax*1+0x0]
  40128c:	00 00 00 00 
  401290:	48 83 c0 20          	add    rax,0x20
  401294:	c3                   	ret
  401295:	66 66 2e 0f 1f 84 00 	data16 cs nop WORD PTR [rax+rax*1+0x0]
  40129c:	00 00 00 00 
  4012a0:	48 83 c0 3a          	add    rax,0x3a
  4012a4:	c3                   	ret
  4012a5:	66 66 2e 0f 1f 84 00 	data16 cs nop WORD PTR [rax+rax*1+0x0]
  4012ac:	00 00 00 00 
  4012b0:	48 83 c0 3b          	add    rax,0x3b
  4012b4:	c3                   	ret
  4012b5:	66 66 2e 0f 1f 84 00 	data16 cs nop WORD PTR [rax+rax*1+0x0]
  4012bc:	00 00 00 00 
  4012c0:	48 83 c0 01          	add    rax,0x1
  4012c4:	c3                   	ret
  4012c5:	66 66 2e 0f 1f 84 00 	data16 cs nop WORD PTR [rax+rax*1+0x0]
  4012cc:	00 00 00 00 
  4012d0:	48 c7 c2 00 00 00 00 	mov    rdx,0x0
  4012d7:	c3                   	ret
  4012d8:	0f 1f 84 00 00 00 00 	nop    DWORD PTR [rax+rax*1+0x0]
  4012df:	00 
  4012e0:	48 c7 c2 00 00 00 00 	mov    rdx,0x0
  4012e7:	52                   	push   rdx
  4012e8:	5a                   	pop    rdx
  4012e9:	c3                   	ret
  4012ea:	66 0f 1f 44 00 00    	nop    WORD PTR [rax+rax*1+0x0]
  4012f0:	48 8d 47 02          	lea    rax,[rdi+0x2]
  4012f4:	c3                   	ret
  4012f5:	66 66 2e 0f 1f 84 00 	data16 cs nop WORD PTR [rax+rax*1+0x0]
  4012fc:	00 00 00 00 
  401300:	48 8d 47 01          	lea    rax,[rdi+0x1]
  401304:	c3                   	ret
  401305:	66 66 2e 0f 1f 84 00 	data16 cs nop WORD PTR [rax+rax*1+0x0]
  40130c:	00 00 00 00 
  401310:	48 8d 04 37          	lea    rax,[rdi+rsi*1]
  401314:	c3                   	ret
  401315:	66 66 2e 0f 1f 84 00 	data16 cs nop WORD PTR [rax+rax*1+0x0]
  40131c:	00 00 00 00 
  401320:	48 8d 04 37          	lea    rax,[rdi+rsi*1]
  401324:	48 01 d0             	add    rax,rdx
  401327:	c3                   	ret
  401328:	0f 1f 84 00 00 00 00 	nop    DWORD PTR [rax+rax*1+0x0]
  40132f:	00 
  401330:	48 8b 36             	mov    rsi,QWORD PTR [rsi]
  401333:	31 c0                	xor    eax,eax
  401335:	e9 26 fd ff ff       	jmp    401060 <syscall@plt>
  40133a:	66 0f 1f 44 00 00    	nop    WORD PTR [rax+rax*1+0x0]
  401340:	48 89 f8             	mov    rax,rdi
  401343:	48 31 f6             	xor    rsi,rsi
  401346:	48 31 f6             	xor    rsi,rsi
  401349:	48 31 d2             	xor    rdx,rdx
  40134c:	0f 05                	syscall
  40134e:	31 c0                	xor    eax,eax
  401350:	c3                   	ret
  401351:	66 66 66 66 66 66 2e 	data16 data16 data16 data16 data16 cs nop WORD PTR [rax+rax*1+0x0]
  401358:	0f 1f 84 00 00 00 00 
  40135f:	00 
  401360:	48 89 f8             	mov    rax,rdi
  401363:	48 89 f7             	mov    rdi,rsi
  401366:	48 31 f6             	xor    rsi,rsi
  401369:	48 31 d2             	xor    rdx,rdx
  40136c:	0f 05                	syscall
  40136e:	31 c0                	xor    eax,eax
  401370:	c3                   	ret
  401371:	66 66 66 66 66 66 2e 	data16 data16 data16 data16 data16 cs nop WORD PTR [rax+rax*1+0x0]
  401378:	0f 1f 84 00 00 00 00 
  40137f:	00 
  401380:	48 8b 06             	mov    rax,QWORD PTR [rsi]
  401383:	48 8b 56 08          	mov    rdx,QWORD PTR [rsi+0x8]
  401387:	48 89 c6             	mov    rsi,rax
  40138a:	31 c0                	xor    eax,eax
  40138c:	e9 cf fc ff ff       	jmp    401060 <syscall@plt>
  401391:	66 66 66 66 66 66 2e 	data16 data16 data16 data16 data16 cs nop WORD PTR [rax+rax*1+0x0]
  401398:	0f 1f 84 00 00 00 00 
  40139f:	00 
  4013a0:	48 8b 06             	mov    rax,QWORD PTR [rsi]
  4013a3:	48 8b 56 08          	mov    rdx,QWORD PTR [rsi+0x8]
  4013a7:	48 8b 4e 10          	mov    rcx,QWORD PTR [rsi+0x10]
  4013ab:	48 89 c6             	mov    rsi,rax
  4013ae:	31 c0                	xor    eax,eax
  4013b0:	e9 ab fc ff ff       	jmp    401060 <syscall@plt>
  4013b5:	66 66 2e 0f 1f 84 00 	data16 cs nop WORD PTR [rax+rax*1+0x0]
  4013bc:	00 00 00 00 
  4013c0:	48 8b 06             	mov    rax,QWORD PTR [rsi]
  4013c3:	48 8b 56 08          	mov    rdx,QWORD PTR [rsi+0x8]
  4013c7:	48 8b 4e 18          	mov    rcx,QWORD PTR [rsi+0x18]
  4013cb:	4c 8b 46 20          	mov    r8,QWORD PTR [rsi+0x20]
  4013cf:	48 89 c6             	mov    rsi,rax
  4013d2:	31 c0                	xor    eax,eax
  4013d4:	e9 87 fc ff ff       	jmp    401060 <syscall@plt>
  4013d9:	0f 1f 80 00 00 00 00 	nop    DWORD PTR [rax+0x0]
  4013e0:	48 89 f8             	mov    rax,rdi
  4013e3:	48 29 f0             	sub    rax,rsi
  4013e6:	c3                   	ret
  4013e7:	66 0f 1f 84 00 00 00 	nop    WORD PTR [rax+rax*1+0x0]
  4013ee:	00 00 
  4013f0:	48 89 f0             	mov    rax,rsi
  4013f3:	48 29 f8             	sub    rax,rdi
  4013f6:	c3                   	ret
  4013f7:	66 0f 1f 84 00 00 00 	nop    WORD PTR [rax+rax*1+0x0]
  4013fe:	00 00 
  401400:	48 89 37             	mov    QWORD PTR [rdi],rsi
  401403:	31 c0                	xor    eax,eax
  401405:	c3                   	ret
  401406:	66 2e 0f 1f 84 00 00 	cs nop WORD PTR [rax+rax*1+0x0]
  40140d:	00 00 00 
  401410:	48 89 3e             	mov    QWORD PTR [rsi],rdi
  401413:	31 c0                	xor    eax,eax
  401415:	c3                   	ret
  401416:	66 2e 0f 1f 84 00 00 	cs nop WORD PTR [rax+rax*1+0x0]
  40141d:	00 00 00 
  401420:	48 89 f8             	mov    rax,rdi
  401423:	48 89 36             	mov    QWORD PTR [rsi],rsi
  401426:	c3                   	ret
  401427:	66 0f 1f 84 00 00 00 	nop    WORD PTR [rax+rax*1+0x0]
  40142e:	00 00 
  401430:	48 89 f0             	mov    rax,rsi
  401433:	48 89 3f             	mov    QWORD PTR [rdi],rdi
  401436:	c3                   	ret
  401437:	66 0f 1f 84 00 00 00 	nop    WORD PTR [rax+rax*1+0x0]
  40143e:	00 00 
  401440:	48 89 f0             	mov    rax,rsi
  401443:	48 89 3f             	mov    QWORD PTR [rdi],rdi
  401446:	c3                   	ret
  401447:	66 0f 1f 84 00 00 00 	nop    WORD PTR [rax+rax*1+0x0]
  40144e:	00 00 
  401450:	48 8b 07             	mov    rax,QWORD PTR [rdi]
  401453:	c3                   	ret
  401454:	66 66 66 2e 0f 1f 84 	data16 data16 cs nop WORD PTR [rax+rax*1+0x0]
  40145b:	00 00 00 00 00 
  401460:	48 8b 06             	mov    rax,QWORD PTR [rsi]
  401463:	c3                   	ret
  401464:	66 66 66 2e 0f 1f 84 	data16 data16 cs nop WORD PTR [rax+rax*1+0x0]
  40146b:	00 00 00 00 00 
  401470:	48 89 f8             	mov    rax,rdi
  401473:	48 89 f7             	mov    rdi,rsi
  401476:	ff e0                	jmp    rax
  401478:	0f 1f 84 00 00 00 00 	nop    DWORD PTR [rax+rax*1+0x0]
  40147f:	00 
  401480:	ff e6                	jmp    rsi
  401482:	66 66 66 66 66 2e 0f 	data16 data16 data16 data16 cs nop WORD PTR [rax+rax*1+0x0]
  401489:	1f 84 00 00 00 00 00 
  401490:	ff e7                	jmp    rdi
  401492:	66 66 66 66 66 2e 0f 	data16 data16 data16 data16 cs nop WORD PTR [rax+rax*1+0x0]
  401499:	1f 84 00 00 00 00 00 
  4014a0:	48 8d 05 49 fe ff ff 	lea    rax,[rip+0xfffffffffffffe49]        # 4012f0 <gets@plt+0x270>
  4014a7:	48 25 00 f0 ff ff    	and    rax,0xfffffffffffff000
  4014ad:	c3                   	ret
  4014ae:	66 90                	xchg   ax,ax
  4014b0:	50                   	push   rax
  4014b1:	48 89 fe             	mov    rsi,rdi
  4014b4:	48 8d 3d 51 0b 00 00 	lea    rdi,[rip+0xb51]        # 40200c <gets@plt+0xf8c>
  4014bb:	31 c0                	xor    eax,eax
  4014bd:	e8 7e fb ff ff       	call   401040 <printf@plt>
  4014c2:	31 c0                	xor    eax,eax
  4014c4:	59                   	pop    rcx
  4014c5:	c3                   	ret
  4014c6:	66 2e 0f 1f 84 00 00 	cs nop WORD PTR [rax+rax*1+0x0]
  4014cd:	00 00 00 
  4014d0:	41 56                	push   r14
  4014d2:	53                   	push   rbx
  4014d3:	50                   	push   rax
  4014d4:	48 89 fb             	mov    rbx,rdi
  4014d7:	4c 8d 35 31 0b 00 00 	lea    r14,[rip+0xb31]        # 40200f <gets@plt+0xf8f>
  4014de:	48 8d 35 eb ff ff ff 	lea    rsi,[rip+0xffffffffffffffeb]        # 4014d0 <gets@plt+0x450>
  4014e5:	4c 89 f7             	mov    rdi,r14
  4014e8:	31 c0                	xor    eax,eax
  4014ea:	e8 51 fb ff ff       	call   401040 <printf@plt>
  4014ef:	4c 89 f7             	mov    rdi,r14
  4014f2:	48 89 de             	mov    rsi,rbx
  4014f5:	31 c0                	xor    eax,eax
  4014f7:	48 83 c4 08          	add    rsp,0x8
  4014fb:	5b                   	pop    rbx
  4014fc:	41 5e                	pop    r14
  4014fe:	e9 3d fb ff ff       	jmp    401040 <printf@plt>
  401503:	66 66 66 66 2e 0f 1f 	data16 data16 data16 cs nop WORD PTR [rax+rax*1+0x0]
  40150a:	84 00 00 00 00 00 
  401510:	53                   	push   rbx
  401511:	48 81 ec 10 01 00 00 	sub    rsp,0x110
  401518:	48 8d 3d 1f 0b 00 00 	lea    rdi,[rip+0xb1f]        # 40203e <gets@plt+0xfbe>
  40151f:	e8 0c fb ff ff       	call   401030 <puts@plt>
  401524:	48 8d 5c 24 08       	lea    rbx,[rsp+0x8]
  401529:	48 89 df             	mov    rdi,rbx
  40152c:	e8 4f fb ff ff       	call   401080 <gets@plt>
  401531:	48 89 df             	mov    rdi,rbx
  401534:	31 f6                	xor    esi,esi
  401536:	ba 0a 00 00 00       	mov    edx,0xa
  40153b:	e8 30 fb ff ff       	call   401070 <strtol@plt>
  401540:	48 89 c3             	mov    rbx,rax
  401543:	48 8d 3d fe 0a 00 00 	lea    rdi,[rip+0xafe]        # 402048 <gets@plt+0xfc8>
  40154a:	e8 e1 fa ff ff       	call   401030 <puts@plt>
  40154f:	48 63 c3             	movsxd rax,ebx
  401552:	48 c1 e0 04          	shl    rax,0x4
  401556:	48 8d 3c 04          	lea    rdi,[rsp+rax*1]
  40155a:	48 83 c7 10          	add    rdi,0x10
  40155e:	e8 1d fb ff ff       	call   401080 <gets@plt>
  401563:	48 81 c4 10 01 00 00 	add    rsp,0x110
  40156a:	5b                   	pop    rbx
  40156b:	c3                   	ret
  40156c:	0f 1f 40 00          	nop    DWORD PTR [rax+0x0]
  401570:	41 56                	push   r14
  401572:	53                   	push   rbx
  401573:	48 81 ec 08 04 00 00 	sub    rsp,0x408
  40157a:	48 89 e3             	mov    rbx,rsp
  40157d:	45 31 f6             	xor    r14d,r14d
  401580:	ba 00 04 00 00       	mov    edx,0x400
  401585:	48 89 df             	mov    rdi,rbx
  401588:	31 f6                	xor    esi,esi
  40158a:	e8 c1 fa ff ff       	call   401050 <memset@plt>
  40158f:	48 89 df             	mov    rdi,rbx
  401592:	e8 39 ff ff ff       	call   4014d0 <gets@plt+0x450>
  401597:	e8 74 ff ff ff       	call   401510 <gets@plt+0x490>
  40159c:	31 ff                	xor    edi,edi
  40159e:	31 db                	xor    ebx,ebx
  4015a0:	eb 1a                	jmp    4015bc <gets@plt+0x53c>
  4015a2:	66 66 66 66 66 2e 0f 	data16 data16 data16 data16 cs nop WORD PTR [rax+rax*1+0x0]
  4015a9:	1f 84 00 00 00 00 00 
  4015b0:	49 ff c6             	inc    r14
  4015b3:	49 81 fe 80 00 00 00 	cmp    r14,0x80
  4015ba:	74 16                	je     4015d2 <gets@plt+0x552>
  4015bc:	4a 83 3c f4 00       	cmp    QWORD PTR [rsp+r14*8],0x0
  4015c1:	74 ed                	je     4015b0 <gets@plt+0x530>
  4015c3:	48 89 de             	mov    rsi,rbx
  4015c6:	42 ff 14 f4          	call   QWORD PTR [rsp+r14*8]
  4015ca:	48 89 df             	mov    rdi,rbx
  4015cd:	48 89 c3             	mov    rbx,rax
  4015d0:	eb de                	jmp    4015b0 <gets@plt+0x530>
  4015d2:	48 8d 3d 3a 0a 00 00 	lea    rdi,[rip+0xa3a]        # 402013 <gets@plt+0xf93>
  4015d9:	e8 d2 fe ff ff       	call   4014b0 <gets@plt+0x430>
  4015de:	31 c0                	xor    eax,eax
  4015e0:	48 81 c4 08 04 00 00 	add    rsp,0x408
  4015e7:	5b                   	pop    rbx
  4015e8:	41 5e                	pop    r14
  4015ea:	c3                   	ret

Disassembly of section .fini:

00000000004015ec <.fini>:
  4015ec:	f3 0f 1e fa          	endbr64
  4015f0:	48 83 ec 08          	sub    rsp,0x8
  4015f4:	48 83 c4 08          	add    rsp,0x8
  4015f8:	c3                   	ret
