
exploitme-safestack-cfi-aslr:     file format elf64-x86-64
exploitme-safestack-cfi-aslr
architecture: i386:x86-64, flags 0x00000150:
HAS_SYMS, DYNAMIC, D_PAGED
start address 0x00000000000021c0

Program Header:
    PHDR off    0x0000000000000040 vaddr 0x0000000000000040 paddr 0x0000000000000040 align 2**3
         filesz 0x0000000000000310 memsz 0x0000000000000310 flags r--
  INTERP off    0x0000000000000350 vaddr 0x0000000000000350 paddr 0x0000000000000350 align 2**0
         filesz 0x000000000000001c memsz 0x000000000000001c flags r--
    LOAD off    0x0000000000000000 vaddr 0x0000000000000000 paddr 0x0000000000000000 align 2**12
         filesz 0x00000000000019d8 memsz 0x00000000000019d8 flags r--
    LOAD off    0x0000000000002000 vaddr 0x0000000000002000 paddr 0x0000000000002000 align 2**12
         filesz 0x0000000000001005 memsz 0x0000000000001005 flags r-x
    LOAD off    0x0000000000004000 vaddr 0x0000000000004000 paddr 0x0000000000004000 align 2**12
         filesz 0x0000000000000a30 memsz 0x0000000000000a30 flags r--
    LOAD off    0x0000000000004d60 vaddr 0x0000000000005d60 paddr 0x0000000000005d60 align 2**12
         filesz 0x00000000000003b0 memsz 0x0000000000000428 flags rw-
 DYNAMIC off    0x0000000000004d78 vaddr 0x0000000000005d78 paddr 0x0000000000005d78 align 2**3
         filesz 0x0000000000000230 memsz 0x0000000000000230 flags rw-
    NOTE off    0x0000000000000370 vaddr 0x0000000000000370 paddr 0x0000000000000370 align 2**3
         filesz 0x0000000000000020 memsz 0x0000000000000020 flags r--
    NOTE off    0x0000000000000390 vaddr 0x0000000000000390 paddr 0x0000000000000390 align 2**2
         filesz 0x0000000000000044 memsz 0x0000000000000044 flags r--
     TLS off    0x0000000000004d60 vaddr 0x0000000000005d60 paddr 0x0000000000005d60 align 2**3
         filesz 0x0000000000000000 memsz 0x0000000000000020 flags r--
0x6474e553 off    0x0000000000000370 vaddr 0x0000000000000370 paddr 0x0000000000000370 align 2**3
         filesz 0x0000000000000020 memsz 0x0000000000000020 flags r--
EH_FRAME off    0x0000000000004174 vaddr 0x0000000000004174 paddr 0x0000000000004174 align 2**2
         filesz 0x000000000000020c memsz 0x000000000000020c flags r--
   STACK off    0x0000000000000000 vaddr 0x0000000000000000 paddr 0x0000000000000000 align 2**4
         filesz 0x0000000000000000 memsz 0x0000000000000000 flags rw-
   RELRO off    0x0000000000004d60 vaddr 0x0000000000005d60 paddr 0x0000000000005d60 align 2**0
         filesz 0x00000000000002a0 memsz 0x00000000000002a0 flags r--

Dynamic Section:
  NEEDED               libm.so.6
  NEEDED               libresolv.so.2
  NEEDED               libc.so.6
  NEEDED               ld-linux-x86-64.so.2
  INIT                 0x0000000000002000
  FINI                 0x0000000000002ff8
  PREINIT_ARRAY        0x0000000000005d60
  PREINIT_ARRAYSZ      0x0000000000000008
  INIT_ARRAY           0x0000000000005d68
  INIT_ARRAYSZ         0x0000000000000008
  FINI_ARRAY           0x0000000000005d70
  FINI_ARRAYSZ         0x0000000000000008
  GNU_HASH             0x00000000000003d8
  STRTAB               0x0000000000000ff8
  SYMTAB               0x0000000000000650
  STRSZ                0x00000000000004b9
  SYMENT               0x0000000000000018
  DEBUG                0x0000000000000000
  PLTGOT               0x0000000000005fe8
  PLTRELSZ             0x0000000000000240
  PLTREL               0x0000000000000007
  JMPREL               0x0000000000001798
  RELA                 0x00000000000015d0
  RELASZ               0x00000000000001c8
  RELAENT              0x0000000000000018
  FLAGS_1              0x0000000008000000
  VERNEED              0x0000000000001580
  VERNEEDNUM           0x0000000000000002
  VERSYM               0x00000000000014b2
  RELACOUNT            0x000000000000000c

Version References:
  required from ld-linux-x86-64.so.2:
    0x0d696913 0x00 04 GLIBC_2.3
  required from libc.so.6:
    0x069691b4 0x00 03 GLIBC_2.34
    0x09691a75 0x00 02 GLIBC_2.2.5

Sections:
Idx Name          Size      VMA               LMA               File off  Algn
  0 .interp       0000001c  0000000000000350  0000000000000350  00000350  2**0
                  CONTENTS, ALLOC, LOAD, READONLY, DATA
  1 .note.gnu.property 00000020  0000000000000370  0000000000000370  00000370  2**3
                  CONTENTS, ALLOC, LOAD, READONLY, DATA
  2 .note.gnu.build-id 00000024  0000000000000390  0000000000000390  00000390  2**2
                  CONTENTS, ALLOC, LOAD, READONLY, DATA
  3 .note.ABI-tag 00000020  00000000000003b4  00000000000003b4  000003b4  2**2
                  CONTENTS, ALLOC, LOAD, READONLY, DATA
  4 .gnu.hash     00000274  00000000000003d8  00000000000003d8  000003d8  2**3
                  CONTENTS, ALLOC, LOAD, READONLY, DATA
  5 .dynsym       000009a8  0000000000000650  0000000000000650  00000650  2**3
                  CONTENTS, ALLOC, LOAD, READONLY, DATA
  6 .dynstr       000004b9  0000000000000ff8  0000000000000ff8  00000ff8  2**0
                  CONTENTS, ALLOC, LOAD, READONLY, DATA
  7 .gnu.version  000000ce  00000000000014b2  00000000000014b2  000014b2  2**1
                  CONTENTS, ALLOC, LOAD, READONLY, DATA
  8 .gnu.version_r 00000050  0000000000001580  0000000000001580  00001580  2**3
                  CONTENTS, ALLOC, LOAD, READONLY, DATA
  9 .rela.dyn     000001c8  00000000000015d0  00000000000015d0  000015d0  2**3
                  CONTENTS, ALLOC, LOAD, READONLY, DATA
 10 .rela.plt     00000240  0000000000001798  0000000000001798  00001798  2**3
                  CONTENTS, ALLOC, LOAD, READONLY, DATA
 11 .init         0000001b  0000000000002000  0000000000002000  00002000  2**2
                  CONTENTS, ALLOC, LOAD, READONLY, CODE
 12 .plt          00000190  0000000000002020  0000000000002020  00002020  2**4
                  CONTENTS, ALLOC, LOAD, READONLY, CODE
 13 .plt.got      00000008  00000000000021b0  00000000000021b0  000021b0  2**3
                  CONTENTS, ALLOC, LOAD, READONLY, CODE
 14 .text         00000e38  00000000000021c0  00000000000021c0  000021c0  2**4
                  CONTENTS, ALLOC, LOAD, READONLY, CODE
 15 .fini         0000000d  0000000000002ff8  0000000000002ff8  00002ff8  2**2
                  CONTENTS, ALLOC, LOAD, READONLY, CODE
 16 .rodata       00000173  0000000000004000  0000000000004000  00004000  2**2
                  CONTENTS, ALLOC, LOAD, READONLY, DATA
 17 .eh_frame_hdr 0000020c  0000000000004174  0000000000004174  00004174  2**2
                  CONTENTS, ALLOC, LOAD, READONLY, DATA
 18 .eh_frame     000006b0  0000000000004380  0000000000004380  00004380  2**3
                  CONTENTS, ALLOC, LOAD, READONLY, DATA
 19 .tbss         00000020  0000000000005d60  0000000000005d60  00004d60  2**3
                  ALLOC, THREAD_LOCAL
 20 .preinit_array 00000008  0000000000005d60  0000000000005d60  00004d60  2**3
                  CONTENTS, ALLOC, LOAD, DATA
 21 .init_array   00000008  0000000000005d68  0000000000005d68  00004d68  2**3
                  CONTENTS, ALLOC, LOAD, DATA
 22 .fini_array   00000008  0000000000005d70  0000000000005d70  00004d70  2**3
                  CONTENTS, ALLOC, LOAD, DATA
 23 .dynamic      00000230  0000000000005d78  0000000000005d78  00004d78  2**3
                  CONTENTS, ALLOC, LOAD, DATA
 24 .got          00000040  0000000000005fa8  0000000000005fa8  00004fa8  2**3
                  CONTENTS, ALLOC, LOAD, DATA
 25 .got.plt      000000d8  0000000000005fe8  0000000000005fe8  00004fe8  2**3
                  CONTENTS, ALLOC, LOAD, DATA
 26 .data         00000050  00000000000060c0  00000000000060c0  000050c0  2**4
                  CONTENTS, ALLOC, LOAD, DATA
 27 .bss          00000078  0000000000006110  0000000000006110  00005110  2**3
                  ALLOC
SYMBOL TABLE:
no symbols


Contents of section .interp:
 0350 2f6c6962 36342f6c 642d6c69 6e75782d  /lib64/ld-linux-
 0360 7838362d 36342e73 6f2e3200           x86-64.so.2.    
Contents of section .note.gnu.property:
 0370 04000000 10000000 05000000 474e5500  ............GNU.
 0380 028000c0 04000000 01000000 00000000  ................
Contents of section .note.gnu.build-id:
 0390 04000000 14000000 03000000 474e5500  ............GNU.
 03a0 60a161ff dc98e57d b5f44b08 d4e7e758  `.a....}..K....X
 03b0 26ad20b6                             &. .            
Contents of section .note.ABI-tag:
 03b4 04000000 10000000 01000000 474e5500  ............GNU.
 03c4 00000000 03000000 02000000 00000000  ................
Contents of section .gnu.hash:
 03d8 43000000 21000000 08000000 09000000  C...!...........
 03e8 4c114022 80116680 60302000 f4104082  L.@"..f.`0 ...@.
 03f8 0020c805 40002001 40004003 01002008  . ..@. .@.@... .
 0408 00008240 40800020 78056080 85440080  ...@@.. x.`..D..
 0418 28024c14 e8a847a9 c11841a5 41000449  (.L...G...A.A..I
 0428 21000000 24000000 25000000 26000000  !...$...%...&...
 0438 28000000 2a000000 00000000 2b000000  (...*.......+...
 0448 00000000 00000000 2c000000 2e000000  ........,.......
 0458 00000000 00000000 30000000 31000000  ........0...1...
 0468 00000000 00000000 32000000 00000000  ........2.......
 0478 33000000 35000000 37000000 00000000  3...5...7.......
 0488 00000000 38000000 00000000 3a000000  ....8.......:...
 0498 00000000 00000000 3b000000 3c000000  ........;...<...
 04a8 3d000000 00000000 40000000 00000000  =.......@.......
 04b8 42000000 00000000 00000000 00000000  B...............
 04c8 43000000 00000000 45000000 48000000  C.......E...H...
 04d8 00000000 49000000 4a000000 4c000000  ....I...J...L...
 04e8 4d000000 4e000000 4f000000 51000000  M...N...O...Q...
 04f8 00000000 53000000 00000000 54000000  ....S.......T...
 0508 59000000 5b000000 5c000000 5d000000  Y...[...\...]...
 0518 5e000000 60000000 00000000 00000000  ^...`...........
 0528 61000000 62000000 64000000 f22d977c  a...b...d....-.|
 0538 bc8b1215 af2d977c b12d977c b12d977c  .....-.|.-.|.-.|
 0548 e60dac1e b32d977c c6769e33 cb3f2d59  .....-.|.v.3.?-Y
 0558 79d8270f 45c17c0f ac4be3c0 e199d2ba  y.'.E.|..K......
 0568 e6fd6ae2 0904dae2 8dcc7c0f 6fab32c3  ..j.......|.o.2.
 0578 1986e3e1 aa93d18f 1fa39828 a43536ff  ...........(.56.
 0588 fb2c977c a73536ff b6c7e7b5 493f6628  .,.|.56.....I?f(
 0598 3362dbed 972e977c 972e977c 982e977c  3b.....|...|...|
 05a8 92f0c4e1 275fc7e2 9a2e977c 474fc15a  ....'_.....|GO.Z
 05b8 d165ce6d 8287eb80 274ee8ae 0c3a970b  .e.m....'N...:..
 05c8 3c2f9d7b 4b2db2e1 07fe6ae2 2758d8b4  </.{K-....j.'X..
 05d8 6a0943d6 4d7ef38a 932db2e1 932db2e1  j.C.M~...-...-..
 05e8 6b7f9a7c 4245d5ec cbbb32c3 4c0a2bc9  k..|BE....2.L.+.
 05f8 b94f6da7 1dea14ff e62d977c be775900  .Om......-.|.wY.
 0608 364ee8ae c63536ff 97b9d5d7 c0775900  6N...56......wY.
 0618 bbe3927c 47c44d88 65ec7c0f 65ec7c0f  ...|G.M.e.|.e.|.
 0628 e0eafce5 67ec7c0f 67ec7c0f d9ea7c0f  ....g.|.g.|...|.
 0638 d8ea7c0f d971581c b4f0c4e1 62aa3017  ..|..qX.....b.0.
 0648 1750e8ae                             .P..            
Contents of section .dynsym:
 0650 00000000 00000000 00000000 00000000  ................
 0660 00000000 00000000 60000000 12000000  ........`.......
 0670 00000000 00000000 00000000 00000000  ................
 0680 d1000000 12000000 00000000 00000000  ................
 0690 00000000 00000000 5b010000 12000000  ........[.......
 06a0 00000000 00000000 00000000 00000000  ................
 06b0 43010000 12000000 00000000 00000000  C...............
 06c0 00000000 00000000 01000000 20000000  ............ ...
 06d0 00000000 00000000 00000000 00000000  ................
 06e0 70010000 12000000 00000000 00000000  p...............
 06f0 00000000 00000000 fa010000 10000000  ................
 0700 00000000 00000000 00000000 00000000  ................
 0710 38020000 10000000 00000000 00000000  8...............
 0720 00000000 00000000 9b000000 12000000  ................
 0730 00000000 00000000 00000000 00000000  ................
 0740 70020000 10000000 00000000 00000000  p...............
 0750 00000000 00000000 96030000 12000000  ................
 0760 00000000 00000000 00000000 00000000  ................
 0770 e3000000 12000000 00000000 00000000  ................
 0780 00000000 00000000 4d020000 12000000  ........M.......
 0790 00000000 00000000 00000000 00000000  ................
 07a0 89000000 12000000 00000000 00000000  ................
 07b0 00000000 00000000 61010000 12000000  ........a.......
 07c0 00000000 00000000 00000000 00000000  ................
 07d0 fd000000 12000000 00000000 00000000  ................
 07e0 00000000 00000000 00030000 12000000  ................
 07f0 00000000 00000000 00000000 00000000  ................
 0800 1d000000 20000000 00000000 00000000  .... ...........
 0810 00000000 00000000 7a010000 12000000  ........z.......
 0820 00000000 00000000 00000000 00000000  ................
 0830 75010000 12000000 00000000 00000000  u...............
 0840 00000000 00000000 6f000000 12000000  ........o.......
 0850 00000000 00000000 00000000 00000000  ................
 0860 2e010000 12000000 00000000 00000000  ................
 0870 00000000 00000000 ca000000 12000000  ................
 0880 00000000 00000000 00000000 00000000  ................
 0890 05010000 12000000 00000000 00000000  ................
 08a0 00000000 00000000 b5000000 12000000  ................
 08b0 00000000 00000000 00000000 00000000  ................
 08c0 65000000 12000000 00000000 00000000  e...............
 08d0 00000000 00000000 2c000000 20000000  ........,... ...
 08e0 00000000 00000000 00000000 00000000  ................
 08f0 54010000 12000000 00000000 00000000  T...............
 0900 00000000 00000000 a2000000 12000000  ................
 0910 00000000 00000000 00000000 00000000  ................
 0920 46000000 12000000 00000000 00000000  F...............
 0930 00000000 00000000 1a010000 12000000  ................
 0940 00000000 00000000 00000000 00000000  ................
 0950 f6000000 11000000 00000000 00000000  ................
 0960 00000000 00000000 f0010000 12000f00  ................
 0970 402d0000 00000000 06000000 00000000  @-..............
 0980 ea020000 11001b00 e0600000 00000000  .........`......
 0990 30000000 00000000 45030000 12000f00  0.......E.......
 09a0 702c0000 00000000 0a000000 00000000  p,..............
 09b0 88040000 12000f00 c02c0000 00000000  .........,......
 09c0 11000000 00000000 4a030000 12000f00  ........J.......
 09d0 e02c0000 00000000 15000000 00000000  .,..............
 09e0 54020000 12000f00 402e0000 00000000  T.......@.......
 09f0 33000000 00000000 83040000 12000f00  3...............
 0a00 002d0000 00000000 19000000 00000000  .-..............
 0a10 fe020000 12000f00 802c0000 00000000  .........,......
 0a20 11000000 00000000 65040000 12000f00  ........e.......
 0a30 c0220000 00000000 2a020000 00000000  ."......*.......
 0a40 cd020000 11001b00 d0600000 00000000  .........`......
 0a50 08000000 00000000 3f030000 12000f00  ........?.......
 0a60 002c0000 00000000 05000000 00000000  .,..............
 0a70 62030000 11001100 00400000 00000000  b........@......
 0a80 04000000 00000000 e4030000 22000f00  ............"...
 0a90 ac220000 00000000 05000000 00000000  ."..............
 0aa0 1d020000 12000f00 202d0000 00000000  ........ -......
 0ab0 07000000 00000000 68020000 12000f00  ........h.......
 0ac0 e02a0000 00000000 06000000 00000000  .*..............
 0ad0 a4020000 12000f00 a02d0000 00000000  .........-......
 0ae0 04000000 00000000 d3020000 12000f00  ................
 0af0 002a0000 00000000 1a000000 00000000  .*..............
 0b00 e8010000 12000f00 f02f0000 00000000  ........./......
 0b10 28000000 00000000 bc020000 12000f00  (...............
 0b20 20260000 00000000 cc010000 00000000   &..............
 0b30 94030000 12000f00 202e0000 00000000  ........ .......
 0b40 16000000 00000000 16020000 12000f00  ................
 0b50 402c0000 00000000 05000000 00000000  @,..............
 0b60 f3030000 12000f00 902d0000 00000000  .........-......
 0b70 04000000 00000000 81030000 12000f00  ................
 0b80 502c0000 00000000 05000000 00000000  P,..............
 0b90 25020000 12000f00 902b0000 00000000  %........+......
 0ba0 04000000 00000000 2f020000 12000f00  ......../.......
 0bb0 202c0000 00000000 0a000000 00000000   ,..............
 0bc0 2b030000 12000f00 c0210000 00000000  +........!......
 0bd0 26000000 00000000 8d020000 12000f00  &...............
 0be0 002b0000 00000000 03000000 00000000  .+..............
 0bf0 b3030000 12000f00 a02b0000 00000000  .........+......
 0c00 04000000 00000000 92020000 12000f00  ................
 0c10 b02b0000 00000000 04000000 00000000  .+..............
 0c20 88030000 12000f00 d02a0000 00000000  .........*......
 0c30 03000000 00000000 f8030000 12000f00  ................
 0c40 d02f0000 00000000 28000000 00000000  ./......(.......
 0c50 97020000 12000f00 102c0000 00000000  .........,......
 0c60 08000000 00000000 00040000 12000f00  ................
 0c70 e0290000 00000000 1a000000 00000000  .)..............
 0c80 0b010000 22000000 00000000 00000000  ...."...........
 0c90 00000000 00000000 cb010000 16001400  ................
 0ca0 00000000 00000000 08000000 00000000  ................
 0cb0 9d030000 12000f00 202b0000 00000000  ........ +......
 0cc0 04000000 00000000 27030000 20001b00  ........'... ...
 0cd0 c0600000 00000000 00000000 00000000  .`..............
 0ce0 49040000 12000f00 802e0000 00000000  I...............
 0cf0 75000000 00000000 57040000 12000f00  u.......W.......
 0d00 d02b0000 00000000 05000000 00000000  .+..............
 0d10 9c020000 12000f00 302d0000 00000000  ........0-......
 0d20 07000000 00000000 c1010000 12000f00  ................
 0d30 802b0000 00000000 04000000 00000000  .+..............
 0d40 25030000 10001b00 c0600000 00000000  %........`......
 0d50 00000000 00000000 1f040000 12000f00  ................
 0d60 90290000 00000000 1a000000 00000000  .)..............
 0d70 71030000 12000f00 e02b0000 00000000  q........+......
 0d80 05000000 00000000 b9010000 12000f00  ................
 0d90 f02b0000 00000000 05000000 00000000  .+..............
 0da0 de000000 12000f00 002f0000 00000000  ........./......
 0db0 ad000000 00000000 61020000 10001b00  ........a.......
 0dc0 10610000 00000000 00000000 00000000  .a..............
 0dd0 0e030000 12000f00 b0290000 00000000  .........)......
 0de0 24000000 00000000 66040000 22000f00  $.......f..."...
 0df0 c0220000 00000000 2a020000 00000000  ."......*.......
 0e00 8d040000 12000f00 e82f0000 00000000  ........./......
 0e10 28000000 00000000 32030000 12000f00  (.......2.......
 0e20 c02b0000 00000000 05000000 00000000  .+..............
 0e30 f5010000 12000f00 d82f0000 00000000  ........./......
 0e40 28000000 00000000 5e020000 12000f00  (.......^.......
 0e50 b02d0000 00000000 19000000 00000000  .-..............
 0e60 aa020000 12000f00 602b0000 00000000  ........`+......
 0e70 04000000 00000000 5b030000 12000f00  ........[.......
 0e80 e02f0000 00000000 28000000 00000000  ./......(.......
 0e90 3f040000 12000f00 702b0000 00000000  ?.......p+......
 0ea0 04000000 00000000 79030000 12000f00  ........y.......
 0eb0 d02d0000 00000000 13000000 00000000  .-..............
 0ec0 7c030000 10001c00 88610000 00000000  |........a......
 0ed0 00000000 00000000 cb030000 12000f00  ................
 0ee0 ac220000 00000000 05000000 00000000  ."..............
 0ef0 08030000 12000f00 502d0000 00000000  ........P-......
 0f00 06000000 00000000 19040000 12000f00  ................
 0f10 602d0000 00000000 07000000 00000000  `-..............
 0f20 b4020000 12000f00 602c0000 00000000  ........`,......
 0f30 08000000 00000000 f8020000 12000f00  ................
 0f40 702d0000 00000000 07000000 00000000  p-..............
 0f50 39040000 12000f00 802d0000 00000000  9........-......
 0f60 07000000 00000000 5f040000 12000f00  ........_.......
 0f70 b02f0000 00000000 08000000 00000000  ./..............
 0f80 39030000 12000f00 c02f0000 00000000  9......../......
 0f90 08000000 00000000 a7030000 10001c00  ................
 0fa0 10610000 00000000 00000000 00000000  .a..............
 0fb0 4f030000 12000f00 c02a0000 00000000  O........*......
 0fc0 06000000 00000000 b8030000 12000f00  ................
 0fd0 f02d0000 00000000 13000000 00000000  .-..............
 0fe0 c1030000 12000f00 102b0000 00000000  .........+......
 0ff0 04000000 00000000                    ........        
Contents of section .dynstr:
 0ff8 005f4954 4d5f6465 72656769 73746572  ._ITM_deregister
 1008 544d436c 6f6e6554 61626c65 005f5f67  TMCloneTable.__g
 1018 6d6f6e5f 73746172 745f5f00 5f49544d  mon_start__._ITM
 1028 5f726567 69737465 72544d43 6c6f6e65  _registerTMClone
 1038 5461626c 65007074 68726561 645f6174  Table.pthread_at
 1048 74725f67 65747374 61636b73 697a6500  tr_getstacksize.
 1058 66726565 00676574 726c696d 69740070  free.getrlimit.p
 1068 74687265 61645f61 7474725f 67657467  thread_attr_getg
 1078 75617264 73697a65 00707468 72656164  uardsize.pthread
 1088 5f617474 725f696e 69740067 65747069  _attr_init.getpi
 1098 64007074 68726561 645f6d75 7465785f  d.pthread_mutex_
 10a8 6c6f636b 00707468 72656164 5f617474  lock.pthread_att
 10b8 725f6465 7374726f 79006d61 6c6c6f63  r_destroy.malloc
 10c8 005f5f6c 6962635f 73746172 745f6d61  .__libc_start_ma
 10d8 696e0070 74687265 61645f6b 65795f63  in.pthread_key_c
 10e8 72656174 65007374 64657272 00667072  reate.stderr.fpr
 10f8 696e7466 00646c73 796d005f 5f637861  intf.dlsym.__cxa
 1108 5f66696e 616c697a 65007074 68726561  _finalize.pthrea
 1118 645f7365 74737065 63696669 63007074  d_setspecific.pt
 1128 68726561 645f6d75 7465785f 756e6c6f  hread_mutex_unlo
 1138 636b005f 5f657272 6e6f5f6c 6f636174  ck.__errno_locat
 1148 696f6e00 646c7673 796d0061 626f7274  ion.dlvsym.abort
 1158 005f5f74 6c735f67 65745f61 64647200  .__tls_get_addr.
 1168 70757473 00676574 73007374 72746f6c  puts.gets.strtol
 1178 006c6962 6d2e736f 2e36006c 69627265  .libm.so.6.libre
 1188 736f6c76 2e736f2e 32006c69 62632e73  solv.so.2.libc.s
 1198 6f2e3600 6c642d6c 696e7578 2d783836  o.6.ld-linux-x86
 11a8 2d36342e 736f2e32 00675f69 6e633539  -64.so.2.g_inc59
 11b8 00675f72 64693272 6178005f 5f736166  .g_rdi2rax.__saf
 11c8 65737461 636b5f75 6e736166 655f7374  estack_unsafe_st
 11d8 61636b5f 70747200 675f6c65 616b3100  ack_ptr.g_leak1.
 11e8 675f7374 00675f73 68005f5f 73616e69  g_st.g_sh.__sani
 11f8 74697a65 725f696e 7465726e 616c5f6d  tizer_internal_m
 1208 656d6370 79006761 64647878 00675f73  emcpy.gaddxx.g_s
 1218 75627879 00675f72 64783272 61780067  ubxy.g_rdx2rax.g
 1228 5f706f70 72647800 5f5f7361 6e697469  _poprdx.__saniti
 1238 7a65725f 696e7465 726e616c 5f6d656d  zer_internal_mem
 1248 73657400 76756c6e 5f6c6561 6b006733  set.vuln_leak.g3
 1258 005f6564 61746100 675f7979 72657400  ._edata.g_yyret.
 1268 5f5f7361 6e697469 7a65725f 696e7465  __sanitizer_inte
 1278 726e616c 5f6d656d 6d6f7665 00675f7a  rnal_memmove.g_z
 1288 3100675f 7a330067 5f7a3500 675f7375  1.g_z3.g_z5.g_su
 1298 62797800 675f6c64 3200675f 72617832  byx.g_ld2.g_rax2
 12a8 72647800 67616464 78797a00 5f5f7361  rdx.gaddxyz.__sa
 12b8 66657374 61636b5f 696e6974 0062696e  festack_init.bin
 12c8 7368005f 5f676574 5f756e73 6166655f  sh.__get_unsafe_
 12d8 73746163 6b5f7074 72006164 64726573  stack_ptr.addres
 12e8 735f7461 6b656e00 675f7374 3400675f  s_taken.g_st4.g_
 12f8 73797363 616c6c00 675f7374 32005f5f  syscall.g_st2.__
 1308 6765745f 756e7361 66655f73 7461636b  get_unsafe_stack
 1318 5f746f70 005f5f64 6174615f 73746172  _top.__data_star
 1328 7400675f 696e6338 00675f73 68330067  t.g_inc8.g_sh3.g
 1338 5f696e63 00675f73 3100675f 73330067  _inc.g_s1.g_s3.g
 1348 5f617267 32736574 79790067 61646479  _arg2setyy.gaddy
 1358 79005f49 4f5f7374 64696e5f 75736564  y._IO_stdin_used
 1368 00675f69 6e633538 00673400 5f656e64  .g_inc58.g4._end
 1378 00676164 64787900 675f6172 67327365  .gaddxy.g_arg2se
 1388 74787800 675f7072 696e7466 00675f72  txx.g_printf.g_r
 1398 61783272 6469005f 5f627373 5f737461  ax2rdi.__bss_sta
 13a8 72740067 5f7a3200 675f6963 616c6c32  rt.g_z2.g_icall2
 13b8 00675f72 61783272 7369005f 5f696e74  .g_rax2rsi.__int
 13c8 65726365 70746f72 5f747261 6d706f6c  erceptor_trampol
 13d8 696e655f 70746872 6561645f 63726561  ine_pthread_crea
 13e8 74650067 5f6c6400 675f7878 72657400  te.g_ld.g_xxret.
 13f8 5f5f6765 745f756e 73616665 5f737461  __get_unsafe_sta
 1408 636b5f73 74617274 00675f73 7433005f  ck_start.g_st3._
 1418 5f676574 5f756e73 6166655f 73746163  _get_unsafe_stac
 1428 6b5f626f 74746f6d 00675f73 74350067  k_bottom.g_st5.g
 1438 5f727369 32726178 0076756c 6e5f6f76  _rsi2rax.vuln_ov
 1448 6572666c 6f770067 5f696e63 33320067  erflow.g_inc32.g
 1458 5f736832 005f5f5f 696e7465 72636570  _sh2.___intercep
 1468 746f725f 70746872 6561645f 63726561  tor_pthread_crea
 1478 74650067 5f733400 675f7332 00675f73  te.g_s4.g_s2.g_s
 1488 79736361 6c6c3200 474c4942 435f322e  yscall2.GLIBC_2.
 1498 3300474c 4942435f 322e3334 00474c49  3.GLIBC_2.34.GLI
 14a8 42435f32 2e322e35 00                 BC_2.2.5.       
Contents of section .gnu.version:
 14b2 00000200 03000200 02000100 02000100  ................
 14c2 01000200 01000200 03000200 02000400  ................
 14d2 02000200 01000200 02000300 02000200  ................
 14e2 03000200 02000100 03000200 03000300  ................
 14f2 02000100 01000100 01000100 01000100  ................
 1502 01000100 01000100 01000100 01000100  ................
 1512 01000100 01000100 01000100 01000100  ................
 1522 01000100 01000100 01000100 01000100  ................
 1532 01000100 02000100 01000100 01000100  ................
 1542 01000100 01000100 01000100 01000100  ................
 1552 01000100 01000100 01000100 01000100  ................
 1562 01000100 01000100 01000100 01000100  ................
 1572 01000100 01000100 01000100 0100      ..............  
Contents of section .gnu.version_r:
 1580 01000100 a4010000 10000000 20000000  ............ ...
 1590 1369690d 00000400 98040000 00000000  .ii.............
 15a0 01000200 9a010000 10000000 00000000  ................
 15b0 b4919606 00000300 a2040000 10000000  ................
 15c0 751a6909 00000200 ad040000 00000000  u.i.............
Contents of section .rela.dyn:
 15d0 605d0000 00000000 08000000 00000000  `]..............
 15e0 20260000 00000000 685d0000 00000000   &......h]......
 15f0 08000000 00000000 a0220000 00000000  ........."......
 1600 705d0000 00000000 08000000 00000000  p]..............
 1610 60220000 00000000 c85f0000 00000000  `"......._......
 1620 08000000 00000000 e02f0000 00000000  ........./......
 1630 c8600000 00000000 08000000 00000000  .`..............
 1640 c8600000 00000000 d0600000 00000000  .`.......`......
 1650 08000000 00000000 1f410000 00000000  .........A......
 1660 e0600000 00000000 08000000 00000000  .`..............
 1670 d02f0000 00000000 e8600000 00000000  ./.......`......
 1680 08000000 00000000 e82f0000 00000000  ........./......
 1690 f0600000 00000000 08000000 00000000  .`..............
 16a0 f02f0000 00000000 f8600000 00000000  ./.......`......
 16b0 08000000 00000000 d82f0000 00000000  ........./......
 16c0 00610000 00000000 08000000 00000000  .a..............
 16d0 b02f0000 00000000 08610000 00000000  ./.......a......
 16e0 08000000 00000000 c02f0000 00000000  ........./......
 16f0 a85f0000 00000000 12000000 43000000  ._..........C...
 1700 00000000 00000000 b05f0000 00000000  ........._......
 1710 06000000 02000000 00000000 00000000  ................
 1720 b85f0000 00000000 06000000 05000000  ._..............
 1730 00000000 00000000 c05f0000 00000000  ........._......
 1740 06000000 12000000 00000000 00000000  ................
 1750 d05f0000 00000000 06000000 1b000000  ._..............
 1760 00000000 00000000 d85f0000 00000000  ........._......
 1770 06000000 42000000 00000000 00000000  ....B...........
 1780 e05f0000 00000000 06000000 20000000  ._.......... ...
 1790 00000000 00000000                    ........        
Contents of section .rela.plt:
 1798 00600000 00000000 07000000 01000000  .`..............
 17a8 00000000 00000000 08600000 00000000  .........`......
 17b8 07000000 03000000 00000000 00000000  ................
 17c8 10600000 00000000 07000000 04000000  .`..............
 17d8 00000000 00000000 18600000 00000000  .........`......
 17e8 07000000 06000000 00000000 00000000  ................
 17f8 20600000 00000000 07000000 09000000   `..............
 1808 00000000 00000000 28600000 00000000  ........(`......
 1818 07000000 0b000000 00000000 00000000  ................
 1828 30600000 00000000 07000000 0c000000  0`..............
 1838 00000000 00000000 38600000 00000000  ........8`......
 1848 07000000 0d000000 00000000 00000000  ................
 1858 40600000 00000000 07000000 0e000000  @`..............
 1868 00000000 00000000 48600000 00000000  ........H`......
 1878 07000000 0f000000 00000000 00000000  ................
 1888 50600000 00000000 07000000 10000000  P`..............
 1898 00000000 00000000 58600000 00000000  ........X`......
 18a8 07000000 11000000 00000000 00000000  ................
 18b8 60600000 00000000 07000000 13000000  ``..............
 18c8 00000000 00000000 68600000 00000000  ........h`......
 18d8 07000000 14000000 00000000 00000000  ................
 18e8 70600000 00000000 07000000 15000000  p`..............
 18f8 00000000 00000000 78600000 00000000  ........x`......
 1908 07000000 16000000 00000000 00000000  ................
 1918 80600000 00000000 07000000 17000000  .`..............
 1928 00000000 00000000 88600000 00000000  .........`......
 1938 07000000 18000000 00000000 00000000  ................
 1948 90600000 00000000 07000000 19000000  .`..............
 1958 00000000 00000000 98600000 00000000  .........`......
 1968 07000000 1a000000 00000000 00000000  ................
 1978 a0600000 00000000 07000000 1c000000  .`..............
 1988 00000000 00000000 a8600000 00000000  .........`......
 1998 07000000 1d000000 00000000 00000000  ................
 19a8 b0600000 00000000 07000000 1e000000  .`..............
 19b8 00000000 00000000 b8600000 00000000  .........`......
 19c8 07000000 1f000000 00000000 00000000  ................
Contents of section .init:
 2000 f30f1efa 4883ec08 488b05b1 3f000048  ....H...H...?..H
 2010 85c07402 ffd04883 c408c3             ..t...H....     
Contents of section .plt:
 2020 ff35ca3f 0000ff25 cc3f0000 0f1f4000  .5.?...%.?....@.
 2030 ff25ca3f 00006800 000000e9 e0ffffff  .%.?..h.........
 2040 ff25c23f 00006801 000000e9 d0ffffff  .%.?..h.........
 2050 ff25ba3f 00006802 000000e9 c0ffffff  .%.?..h.........
 2060 ff25b23f 00006803 000000e9 b0ffffff  .%.?..h.........
 2070 ff25aa3f 00006804 000000e9 a0ffffff  .%.?..h.........
 2080 ff25a23f 00006805 000000e9 90ffffff  .%.?..h.........
 2090 ff259a3f 00006806 000000e9 80ffffff  .%.?..h.........
 20a0 ff25923f 00006807 000000e9 70ffffff  .%.?..h.....p...
 20b0 ff258a3f 00006808 000000e9 60ffffff  .%.?..h.....`...
 20c0 ff25823f 00006809 000000e9 50ffffff  .%.?..h.....P...
 20d0 ff257a3f 0000680a 000000e9 40ffffff  .%z?..h.....@...
 20e0 ff25723f 0000680b 000000e9 30ffffff  .%r?..h.....0...
 20f0 ff256a3f 0000680c 000000e9 20ffffff  .%j?..h..... ...
 2100 ff25623f 0000680d 000000e9 10ffffff  .%b?..h.........
 2110 ff255a3f 0000680e 000000e9 00ffffff  .%Z?..h.........
 2120 ff25523f 0000680f 000000e9 f0feffff  .%R?..h.........
 2130 ff254a3f 00006810 000000e9 e0feffff  .%J?..h.........
 2140 ff25423f 00006811 000000e9 d0feffff  .%B?..h.........
 2150 ff253a3f 00006812 000000e9 c0feffff  .%:?..h.........
 2160 ff25323f 00006813 000000e9 b0feffff  .%2?..h.........
 2170 ff252a3f 00006814 000000e9 a0feffff  .%*?..h.........
 2180 ff25223f 00006815 000000e9 90feffff  .%"?..h.........
 2190 ff251a3f 00006816 000000e9 80feffff  .%.?..h.........
 21a0 ff25123f 00006817 000000e9 70feffff  .%.?..h.....p...
Contents of section .plt.got:
 21b0 ff25223e 00006690                    .%">..f.        
Contents of section .text:
 21c0 f30f1efa 31ed4989 d15e4889 e24883e4  ....1.I..^H..H..
 21d0 f0505445 31c031c9 488d3d21 0d0000ff  .PTE1.1.H.=!....
 21e0 15cb3d00 00f4662e 0f1f8400 00000000  ..=...f.........
 21f0 488d3d19 3f000048 8d05123f 00004839  H.=.?..H...?..H9
 2200 f8741548 8b05ae3d 00004885 c07409ff  .t.H...=..H..t..
 2210 e00f1f80 00000000 c30f1f80 00000000  ................
 2220 488d3de9 3e000048 8d35e23e 00004829  H.=.>..H.5.>..H)
 2230 fe4889f0 48c1ee3f 48c1f803 4801c648  .H..H..?H...H..H
 2240 d1fe7414 488b0585 3d000048 85c07408  ..t.H...=..H..t.
 2250 ffe0660f 1f440000 c30f1f80 00000000  ..f..D..........
 2260 f30f1efa 803da53e 00000075 2b554883  .....=.>...u+UH.
 2270 3d623d00 00004889 e5740c48 8b3d463e  =b=...H..t.H.=F>
 2280 0000e829 ffffffe8 64ffffff c6057d3e  ...)....d.....}>
 2290 0000015d c30f1f00 c30f1f80 00000000  ...]............
 22a0 f30f1efa e977ffff ff0f1f00 e90f0000  .....w..........
 22b0 00662e0f 1f840000 0000000f 1f440000  .f...........D..
 22c0 f30f1efa 55415741 56415541 54534883  ....UAWAVAUATSH.
 22d0 ec584989 cf4989d4 4889f349 89fe488d  .XI..I..H..I..H.
 22e0 3d433e00 00e896fe ffff803d 5f3e0000  =C>........=_>..
 22f0 00752848 8d3d7c1d 0000488d 35173e00  .u(H.=|...H.5.>.
 2300 00488d15 a4ffffff 488d0d9d ffffffe8  .H......H.......
 2310 0c070000 c605353e 00000148 8d3d063e  ......5>...H.=.>
 2320 0000e8f9 fdffff48 c7442410 00000000  .......H.D$.....
 2330 48c74424 18000000 004885db 0f84db00  H.D$.....H......
 2340 0000488d 74241048 89dfe841 feffff48  ..H.t$.H...A...H
 2350 8d742418 4889dfe8 b4fdffff 488b5424  .t$.H.......H.T$
 2360 104885d2 0f84f000 00004883 c20f4883  .H........H...H.
 2370 e2f04889 5424104c 8b6c2418 4c01ea0f  ..H.T$.L.l$.L...
 2380 82050100 0048c704 24000000 00bf0900  .....H..$.......
 2390 000031f6 b9030000 0041b822 00000041  ..1......A."...A
 23a0 b9ffffff ff31c0e8 34fdffff 4883f8ff  .....1..4...H...
 23b0 0f840401 00004889 c5bf0a00 00004889  ......H.......H.
 23c0 c64c89ea 31c931c0 e813fdff ff4c01ed  .L..1.1......L..
 23d0 488b4424 10488d0c 284883c1 d84c8964  H.D$.H..(H...L.d
 23e0 28d84c89 7c28e048 896c28e8 48894428  (.L.|(.H.l(.H.D(
 23f0 f0488b54 24184889 5428f848 8d15ee00  .H.T$.H.T(.H....
 2400 00004c89 f74889de ff150a3d 00004883  ..L..H.....=..H.
 2410 c4585b41 5c415d41 5e415f5d c34c8d6c  .X[A\A]A^A_].L.l
 2420 24204c89 efe886fc ffff488d 7424104c  $ L.......H.t$.L
 2430 89efe859 fdffff48 8d742418 4c89efe8  ...Y...H.t$.L...
 2440 ccfcffff 4c89efe8 04fdffff 488b5424  ....L.......H.T$
 2450 104885d2 0f8510ff ffff488b 057f3b00  .H........H...;.
 2460 00488b38 488d3599 1b000048 8d15b41b  .H.8H.5....H....
 2470 00004c8d 05e51b00 00b9e300 000031c0  ..L...........1.
 2480 e84bfcff ffe8b6fb ffff488b 054f3b00  .K........H..O;.
 2490 00488b38 488d3569 1b000048 8d15841b  .H.8H.5i...H....
 24a0 00004c8d 05a51b00 00b95c00 000031c0  ..L.......\...1.
 24b0 e81bfcff ffe886fb ffff488b 051f3b00  ..........H...;.
 24c0 00488b38 488d3539 1b000048 8d15541b  .H.8H.59...H..T.
 24d0 00004c8d 058a1b00 00b95f00 000031c0  ..L......._...1.
 24e0 e8ebfbff ffe856fb ffff660f 1f440000  ......V...f..D..
 24f0 f30f1efa 55415741 56415541 5453504c  ....UAWAVAUATSPL
 2500 8b77184d 85f60f88 80000000 4c8b7f20  .w.M........L.. 
 2510 4d85ff0f 88a30000 004c8b67 104f8d2c  M........L.g.O.,
 2520 3441f6c5 0f0f85c1 00000048 8b2f488b  4A.........H./H.
 2530 5f086448 8b042500 00000048 0305663a  _.dH..%....H..f:
 2540 00004c89 28666666 64488b04 25000000  ..L.(fffdH..%...
 2550 004c89a0 e8ffffff 4c89b0f0 ffffff4c  .L......L......L
 2560 89b8f8ff ffff8b3d b43b0000 be010000  .......=.;......
 2570 00e82afc ffff4889 df4889e8 4883c408  ..*...H..H..H...
 2580 5b415c41 5d415e41 5f5dffe0 488b054d  [A\A]A^A_]..H..M
 2590 3a000048 8b38488d 35671a00 00488d15  :..H.8H.5g...H..
 25a0 821a0000 4c8d05da 1a0000b9 65000000  ....L.......e...
 25b0 31c0e819 fbffffe8 84faffff 488b051d  1...........H...
 25c0 3a000048 8b38488d 35371a00 00488d15  :..H.8H.57...H..
 25d0 521a0000 4c8d05d0 1a0000b9 66000000  R...L.......f...
 25e0 31c0e8e9 faffffe8 54faffff 488b05ed  1.......T...H...
 25f0 39000048 8b38488d 35071a00 00488d15  9..H.8H.5....H..
 2600 221a0000 4c8d05c7 1a0000b9 68000000  "...L.......h...
 2610 31c0e8b9 faffffe8 24faffff 0f1f4000  1.......$.....@.
 2620 f30f1efa 41574156 534883ec 20488d74  ....AWAVSH.. H.t
 2630 2410bf03 000000e8 24fbffff 4c8b7424  $.......$...L.t$
 2640 104983fe ffb90000 80024c0f 44f185c0  .I........L.D...
 2650 4c0f45f1 4981fe00 f0ffff0f 83cb0000  L.E.I...........
 2660 00498d96 00100000 48c70424 00000000  .I......H..$....
 2670 bf090000 0031f6b9 03000000 41b82200  .....1......A.".
 2680 000041b9 ffffffff 31c0e851 faffff48  ..A.....1..Q...H
 2690 83f8ff0f 84c30000 004889c3 bf0a0000  .........H......
 26a0 00ba0010 00004889 c631c931 c0e82efa  ......H..1.1....
 26b0 ffff4d85 f60f88d1 0000004e 8d3c3349  ..M........N.<3I
 26c0 81c70010 000041f6 c70f0f85 ec000000  ......A.........
 26d0 4881c300 10000064 488b0425 00000000  H......dH..%....
 26e0 480305c1 3800004c 89386666 6664488b  H...8..L.8fffdH.
 26f0 04250000 00004889 98e8ffff ff4c89b0  .%....H......L..
 2700 f0ffffff 48c780f8 ffffff00 10000048  ....H..........H
 2710 8d3d0a3a 0000488d 35d30000 00e86ef9  .=.:..H.5.....n.
 2720 ffff4883 c4205b41 5e415fc3 488b05ad  ..H.. [A^A_.H...
 2730 38000048 8b38488d 35c71800 00488d15  8..H.8H.5....H..
 2740 e2180000 4c8d0503 190000b9 5c000000  ....L.......\...
 2750 31c0e879 f9ffffe8 e4f8ffff 488b057d  1..y........H..}
 2760 38000048 8b38488d 35971800 00488d15  8..H.8H.5....H..
 2770 b2180000 4c8d05e8 180000b9 5f000000  ....L......._...
 2780 31c0e849 f9ffffe8 b4f8ffff 488b054d  1..I........H..M
 2790 38000048 8b38488d 35671800 00488d15  8..H.8H.5g...H..
 27a0 82180000 4c8d05da 180000b9 65000000  ....L.......e...
 27b0 31c0e819 f9ffffe8 84f8ffff 488b051d  1...........H...
 27c0 38000048 8b38488d 35371800 00488d15  8..H.8H.57...H..
 27d0 52180000 4c8d05f7 180000b9 68000000  R...L.......h...
 27e0 31c0e8e9 f8ffffe8 54f8ffff 0f1f4000  1.......T.....@.
 27f0 f30f1efa 55415741 56415541 54535066  ....UAWAVAUATSPf
 2800 66666448 8b042500 00000048 83b8e8ff  ffdH..%....H....
 2810 ffff000f 84470100 004889c3 4c8da0e8  .....G...H..L...
 2820 ffffff8b 3df73800 0031f6e8 70f9ffff  ....=.8..1..p...
 2830 4c8d3521 3900004c 89f7e841 f9ffff4c  L.5!9..L...A...L
 2840 8b3d3a39 00004c89 3c2448c7 052b3900  .=:9..L.<$H..+9.
 2850 00000000 004c89f7 e8c3f8ff ffe80ef8  .....L..........
 2860 ffff89c5 bfba0000 0031c0e8 70f8ffff  .........1..p...
 2870 4989c649 89e5eb2f 0f1f8400 00000000  I..I.../........
 2880 498b7708 498b5710 bf0b0000 0031c0e8  I.w.I.W......1..
 2890 4cf8ffff 498b0749 8945004c 89ffe88d  L...I..I.E.L....
 28a0 f7ffff4d 8b7d004d 85ff743c 41396f18  ...M.}.M..t<A9o.
 28b0 75ce498b 5720bfea 00000089 ee31c931  u.I.W .......1.1
 28c0 c0e81af8 ffff83f8 ff7515e8 80f7ffff  .........u......
 28d0 83380374 ab4d89fd 4d8b3feb ca0f1f00  .8.t.M..M.?.....
 28e0 4d89fd4d 8b3febbf bf280000 00e83ef8  M..M.?...(....>.
 28f0 ffff4989 c7498b0c 24488b93 f8ffffff  ..I..I..$H......
 2900 4829d148 89480848 0393f0ff ffff4889  H).H.H.H......H.
 2910 50108968 184c8970 20488d1d 38380000  P..h.L.p H..88..
 2920 4889dfe8 58f8ffff 488b0551 38000049  H...X...H..Q8..I
 2930 89450048 8b042449 89074c89 3d3f3800  .E.H..$I..L.=?8.
 2940 004889df e8d7f7ff ff49c704 24000000  .H.......I..$...
 2950 004883c4 085b415c 415d415e 415f5dc3  .H...[A\A]A^A_].
 2960 488b0579 36000048 8b38488d 35931600  H..y6..H.8H.5...
 2970 00488d15 ae160000 4c8d0582 170000b9  .H......L.......
 2980 a1000000 31c0e845 f7ffffe8 b0f6ffff  ....1..E........
 2990 f30f1efa 50666666 64488b04 25000000  ....PfffdH..%...
 29a0 00488b80 e8ffffff 59c3660f 1f440000  .H......Y.f..D..
 29b0 f30f1efa 50666666 64488b04 25000000  ....PfffdH..%...
 29c0 00488b88 e8ffffff 480388f0 ffffff48  .H......H......H
 29d0 89c859c3 662e0f1f 84000000 00006690  ..Y.f.........f.
 29e0 f30f1efa 50666666 64488b04 25000000  ....PfffdH..%...
 29f0 00488b80 e8ffffff 59c3660f 1f440000  .H......Y.f..D..
 2a00 f30f1efa 5064488b 04250000 00004803  ....PdH..%....H.
 2a10 05933500 00488b00 59c36690 0f1f4000  ..5..H..Y.f...@.
 2a20 f30f1efa 41574156 41554154 534889cb  ....AWAVAUATSH..
 2a30 4989d649 89f74989 fc48c7c7 ffffffff  I..I..I..H......
 2a40 4c89e6e8 f8f6ffff 4885c075 144531ed  L.......H..u.E1.
 2a50 31ff4c89 e6e8e6f6 ffff4839 d8490f44  1.L.......H9.I.D
 2a60 c5498907 4885c00f 95c14939 de0f94c0  .I..H.....I9....
 2a70 20c85b41 5c415d41 5e415fc3 0f1f4000   .[A\A]A^A_...@.
 2a80 f30f1efa 41574156 534c89c3 4989ce49  ....AWAVSL..I..I
 2a90 89d74889 f24889fe 48c7c7ff ffffffe8  ..H..H..H.......
 2aa0 ccf6ffff 49890748 85c00f95 c14939de  ....I..H.....I9.
 2ab0 0f94c020 c85b415e 415fc390 0f1f4000  ... .[A^A_....@.
 2ac0 b8010000 00c3662e 0f1f8400 00000000  ......f.........
 2ad0 31c0c366 2e0f1f84 00000000 000f1f00  1..f............
 2ae0 b8340000 00c3662e 0f1f8400 00000000  .4....f.........
 2af0 b8350000 00c3662e 0f1f8400 00000000  .5....f.........
 2b00 31c0c366 2e0f1f84 00000000 000f1f00  1..f............
 2b10 4889c6c3 662e0f1f 84000000 00006690  H...f.........f.
 2b20 4889c7c3 662e0f1f 84000000 00006690  H...f.........f.
 2b30 488b0599 350000c3 0f1f8400 00000000  H...5...........
 2b40 488b0589 350000c3 0f1f8400 00000000  H...5...........
 2b50 488b0579 350000c3 0f1f8400 00000000  H..y5...........
 2b60 4889c2c3 662e0f1f 84000000 00006690  H...f.........f.
 2b70 4889f0c3 662e0f1f 84000000 00006690  H...f.........f.
 2b80 4889f8c3 662e0f1f 84000000 00006690  H...f.........f.
 2b90 4889d0c3 662e0f1f 84000000 00006690  H...f.........f.
 2ba0 4831f6c3 662e0f1f 84000000 00006690  H1..f.........f.
 2bb0 4831c0c3 662e0f1f 84000000 00006690  H1..f.........f.
 2bc0 4883c008 c3662e0f 1f840000 00000090  H....f..........
 2bd0 4883c020 c3662e0f 1f840000 00000090  H.. .f..........
 2be0 4883c03a c3662e0f 1f840000 00000090  H..:.f..........
 2bf0 4883c03b c3662e0f 1f840000 00000090  H..;.f..........
 2c00 4883c001 c3662e0f 1f840000 00000090  H....f..........
 2c10 48c7c200 000000c3 0f1f8400 00000000  H...............
 2c20 48c7c200 00000052 5ac3660f 1f440000  H......RZ.f..D..
 2c30 488d4702 c3662e0f 1f840000 00000090  H.G..f..........
 2c40 488d4701 c3662e0f 1f840000 00000090  H.G..f..........
 2c50 488d0437 c3662e0f 1f840000 00000090  H..7.f..........
 2c60 488d0437 4801d0c3 0f1f8400 00000000  H..7H...........
 2c70 488b3631 c0e966f4 ffff660f 1f440000  H.61..f...f..D..
 2c80 4889f848 31f64831 f64831d2 0f0531c0  H..H1.H1.H1...1.
 2c90 c3662e0f 1f840000 0000000f 1f440000  .f...........D..
 2ca0 4889f848 89f74831 f64831d2 0f0531c0  H..H..H1.H1...1.
 2cb0 c3662e0f 1f840000 0000000f 1f440000  .f...........D..
 2cc0 488b0648 8b560848 89c631c0 e90ff4ff  H..H.V.H..1.....
 2cd0 ff662e0f 1f840000 0000000f 1f440000  .f...........D..
 2ce0 488b0648 8b560848 8b4e1048 89c631c0  H..H.V.H.N.H..1.
 2cf0 e9ebf3ff ff662e0f 1f840000 00000090  .....f..........
 2d00 488b0648 8b560848 8b4e184c 8b462048  H..H.V.H.N.L.F H
 2d10 89c631c0 e9c7f3ff ff0f1f80 00000000  ..1.............
 2d20 4889f848 29f0c366 0f1f8400 00000000  H..H)..f........
 2d30 4889f048 29f8c366 0f1f8400 00000000  H..H)..f........
 2d40 48893731 c0c3662e 0f1f8400 00000000  H.71..f.........
 2d50 48893e31 c0c3662e 0f1f8400 00000000  H.>1..f.........
 2d60 4889f848 8936c366 0f1f8400 00000000  H..H.6.f........
 2d70 4889f048 893fc366 0f1f8400 00000000  H..H.?.f........
 2d80 4889f048 893fc366 0f1f8400 00000000  H..H.?.f........
 2d90 488b07c3 662e0f1f 84000000 00006690  H...f.........f.
 2da0 488b06c3 662e0f1f 84000000 00006690  H...f.........f.
 2db0 488d0df9 01000048 39cf7508 4889f848  H......H9.u.H..H
 2dc0 89f7ffe0 670fb940 020f1f80 00000000  ....g..@........
 2dd0 488d05d9 01000048 39c67502 ffe6670f  H......H9.u...g.
 2de0 b9400266 2e0f1f84 00000000 000f1f00  .@.f............
 2df0 488d05c9 01000048 39c77502 ffe7670f  H......H9.u...g.
 2e00 b9400266 2e0f1f84 00000000 000f1f00  .@.f............
 2e10 48c7c000 f0ffff48 2305aa31 0000c390  H......H#..1....
 2e20 504889fe 488d3dfc 12000031 c0e84ef2  PH..H.=....1..N.
 2e30 ffff31c0 59c3662e 0f1f8400 00000000  ..1.Y.f.........
 2e40 41565350 4889fb4c 8d35dc12 0000488d  AVSPH..L.5....H.
 2e50 35ebffff ff4c89f7 31c0e821 f2ffff4c  5....L..1..!...L
 2e60 89f74889 de31c048 83c4085b 415ee90d  ..H..1.H...[A^..
 2e70 f2ffff66 2e0f1f84 00000000 000f1f00  ...f............
 2e80 41574156 534c8b35 1c310000 644d8b3e  AWAVSL.5.1..dM.>
 2e90 498d87f0 feffff64 49890648 8d3db712  I......dI..H.=..
 2ea0 0000e8b9 f1ffff49 8d9ff8fe ffff4889  .......I......H.
 2eb0 dfe84af2 ffff4889 df31f6ba 0a000000  ..J...H..1......
 2ec0 e82bf2ff ff4889c3 488d3d94 120000e8  .+...H..H.=.....
 2ed0 8cf1ffff 4863c348 c1e00449 8d3c0748  ....Hc.H...I.<.H
 2ee0 81c700ff ffffe815 f2ffff64 4d893e5b  ...........dM.>[
 2ef0 415e415f c3662e0f 1f840000 00000090  A^A_.f..........
 2f00 41574156 41554154 534c8b35 98300000  AWAVAUATSL.5.0..
 2f10 644d8b3e 498d9f00 fcffff64 49891e45  dM.>I......dI..E
 2f20 31e4ba00 04000048 89df31f6 e86ff1ff  1......H..1..o..
 2f30 ff4889df e807ffff ffe842ff ffff4c8d  .H........B...L.
 2f40 2d8b0000 0031ff31 dbeb110f 1f440000  -....1.1.....D..
 2f50 49ffc449 81fc8000 00007430 4b83bce7  I..I......t0K...
 2f60 00fcffff 0074e94b 8b84e700 fcffff48  .....t.K.......H
 2f70 89c14c29 e948c1c1 3d4883f9 05732948  ..L).H..=H...s)H
 2f80 89deffd0 4889df48 89c3ebc4 488d3d9b  ....H..H....H.=.
 2f90 110000e8 88feffff 644d893e 31c05b41  ........dM.>1.[A
 2fa0 5c415d41 5e415fc3 670fb940 020f1f00  \A]A^A_.g..@....
 2fb0 e98bfbff ffcccccc 0f1f8400 00000000  ................
 2fc0 e98bfbff ffcccccc 0f1f8400 00000000  ................
 2fd0 e91bfbff ffcccccc e953fbff ffcccccc  .........S......
 2fe0 e94bfcff ffcccccc e9b3fcff ffcccccc  .K..............
 2ff0 e91bfeff ffcccccc                    ........        
Contents of section .fini:
 2ff8 f30f1efa 4883ec08 4883c408 c3        ....H...H....   
Contents of section .rodata:
 4000 01000200 73616665 73746163 6b204348  ....safestack CH
 4010 45434b20 6661696c 65643a20 25733a25  ECK failed: %s:%
 4020 64202573 0a00636f 6d70696c 65722d72  d %s..compiler-r
 4030 742f6c69 622f7361 66657374 61636b2f  t/lib/safestack/
 4040 73616665 73746163 6b2e6370 70007369  safestack.cpp.si
 4050 7a65202b 20677561 7264203e 3d207369  ze + guard >= si
 4060 7a65004d 41505f46 41494c45 4420213d  ze.MAP_FAILED !=
 4070 20616464 72007074 68726561 645f6372   addr.pthread_cr
 4080 65617465 00286368 6172202a 29737461  eate.(char *)sta
 4090 7274202b 2073697a 65203e3d 20286368  rt + size >= (ch
 40a0 6172202a 29737461 72740028 63686172  ar *)start.(char
 40b0 202a2973 74617274 202b2067 75617264   *)start + guard
 40c0 203e3d20 28636861 72202a29 73746172   >= (char *)star
 40d0 74002828 2873697a 655f7429 73746163  t.(((size_t)stac
 40e0 6b5f7074 72292026 20286b53 7461636b  k_ptr) & (kStack
 40f0 416c6967 6e202d20 31292920 3d3d2030  Align - 1)) == 0
 4100 00756e73 6166655f 73746163 6b5f7374  .unsafe_stack_st
 4110 61727420 213d206e 756c6c70 7472002f  art != nullptr./
 4120 62696e2f 73680025 73002570 0a005b52  bin/sh.%s.%p..[R
 4130 4553554c 545d204e 6f742065 78706c6f  ESULT] Not explo
 4140 69746564 203a2820 45786974 696e6720  ited :( Exiting 
 4150 73616665 6c792e0a 00456e74 65722069  safely...Enter i
 4160 643a0045 6e746572 20706173 73776f72  d:.Enter passwor
 4170 643a00                               d:.             
Contents of section .eh_frame_hdr:
 4174 011b033b 08020000 40000000 acdeffff  ...;....@.......
 4184 3c020000 3ce0ffff 64020000 4ce0ffff  <...<...d...L...
 4194 24020000 38e1ffff 7c020000 4ce1ffff  $...8...|...L...
 41a4 90020000 7ce3ffff e0020000 ace4ffff  ....|...........
 41b4 2c030000 7ce6ffff 60030000 1ce8ffff  ,...|...`.......
 41c4 ac030000 3ce8ffff c4030000 6ce8ffff  ....<.......l...
 41d4 dc030000 8ce8ffff f4030000 ace8ffff  ................
 41e4 0c040000 0ce9ffff 48040000 4ce9ffff  ........H...L...
 41f4 74040000 5ce9ffff 88040000 6ce9ffff  t...\.......l...
 4204 9c040000 7ce9ffff b0040000 8ce9ffff  ....|...........
 4214 c4040000 9ce9ffff d8040000 ace9ffff  ................
 4224 ec040000 bce9ffff 00050000 cce9ffff  ................
 4234 14050000 dce9ffff 28050000 ece9ffff  ........(.......
 4244 3c050000 fce9ffff 50050000 0ceaffff  <.......P.......
 4254 64050000 1ceaffff 78050000 2ceaffff  d.......x...,...
 4264 8c050000 3ceaffff a0050000 4ceaffff  ....<.......L...
 4274 b4050000 5ceaffff c8050000 6ceaffff  ....\.......l...
 4284 dc050000 7ceaffff f0050000 8ceaffff  ....|...........
 4294 04060000 9ceaffff 18060000 aceaffff  ................
 42a4 2c060000 bceaffff 40060000 cceaffff  ,.......@.......
 42b4 54060000 dceaffff 68060000 eceaffff  T.......h.......
 42c4 7c060000 fceaffff 90060000 0cebffff  |...............
 42d4 a4060000 2cebffff b8060000 4cebffff  ....,.......L...
 42e4 cc060000 6cebffff e0060000 8cebffff  ....l...........
 42f4 f4060000 acebffff 08070000 bcebffff  ................
 4304 1c070000 ccebffff 30070000 dcebffff  ........0.......
 4314 44070000 ecebffff 58070000 fcebffff  D.......X.......
 4324 6c070000 0cecffff 80070000 1cecffff  l...............
 4334 94070000 2cecffff a8070000 3cecffff  ....,.......<...
 4344 bc070000 5cecffff d0070000 7cecffff  ....\.......|...
 4354 e4070000 9cecffff f8070000 acecffff  ................
 4364 0c080000 ccecffff 24080000 0cedffff  ........$.......
 4374 4c080000 8cedffff 78080000           L.......x...    
Contents of section .eh_frame:
 4380 14000000 00000000 017a5200 01781001  .........zR..x..
 4390 1b0c0708 90010000 14000000 1c000000  ................
 43a0 20deffff 26000000 00440710 00000000   ...&....D......
 43b0 24000000 34000000 68dcffff 90010000  $...4...h.......
 43c0 000e1046 0e184a0f 0b770880 003f1a3b  ...F..J..w...?.;
 43d0 2a332422 00000000 14000000 5c000000  *3$"........\...
 43e0 d0ddffff 08000000 00000000 00000000  ................
 43f0 10000000 74000000 b4deffff 05000000  ....t...........
 4400 00000000 4c000000 88000000 b4deffff  ....L...........
 4410 2a020000 00450e10 420e1842 0e20420e  *....E..B..B. B.
 4420 28420e30 410e3844 0e900183 078c068d  (B.0A.8D........
 4430 058e048f 03860203 40010e38 410e3042  ........@..8A.0B
 4440 0e28420e 20420e18 420e1041 0e08410e  .(B. B..B..A..A.
 4450 90010000 48000000 d8000000 94e0ffff  ....H...........
 4460 2c010000 00450e10 420e1842 0e20420e  ,....E..B..B. B.
 4470 28420e30 410e3841 0e408307 8c068d05  (B.0A.8A.@......
 4480 8e048f03 86020281 0e38410e 30420e28  .........8A.0B.(
 4490 420e2042 0e18420e 10410e08 420e4000  B. B..B..A..B.@.
 44a0 30000000 24010000 78e1ffff cc010000  0...$...x.......
 44b0 00460e10 420e1841 0e20440e 4083048e  .F..B..A. D.@...
 44c0 038f0202 f90e2041 0e18420e 10420e08  ...... A..B..B..
 44d0 410e4000 48000000 58010000 14e3ffff  A.@.H...X.......
 44e0 a0010000 00450e10 420e1842 0e20420e  .....E..B..B. B.
 44f0 28420e30 410e3841 0e408307 8c068d05  (B.0A.8A.@......
 4500 8e048f03 86020356 010e3841 0e30420e  .......V..8A.0B.
 4510 28420e20 420e1842 0e10410e 08410e40  (B. B..B..A..A.@
 4520 14000000 a4010000 68e4ffff 1a000000  ........h.......
 4530 00450e10 540e0800 14000000 bc010000  .E..T...........
 4540 70e4ffff 24000000 00450e10 5e0e0800  p...$....E..^...
 4550 14000000 d4010000 88e4ffff 1a000000  ................
 4560 00450e10 540e0800 14000000 ec010000  .E..T...........
 4570 90e4ffff 1a000000 00450e10 540e0800  .........E..T...
 4580 38000000 04020000 98e4ffff 5c000000  8...........\...
 4590 00460e10 420e1842 0e20420e 28410e30  .F..B..B. B.(A.0
 45a0 83068c05 8d048e03 8f020246 0e28420e  ...........F.(B.
 45b0 20420e18 420e1042 0e080000 28000000   B..B..B....(...
 45c0 40020000 bce4ffff 3b000000 00460e10  @.......;....F..
 45d0 420e1841 0e208304 8e038f02 6d0e1842  B..A. ......m..B
 45e0 0e10420e 08000000 10000000 6c020000  ..B.........l...
 45f0 d0e4ffff 06000000 00000000 10000000  ................
 4600 80020000 cce4ffff 03000000 00000000  ................
 4610 10000000 94020000 c8e4ffff 06000000  ................
 4620 00000000 10000000 a8020000 c4e4ffff  ................
 4630 06000000 00000000 10000000 bc020000  ................
 4640 c0e4ffff 03000000 00000000 10000000  ................
 4650 d0020000 bce4ffff 04000000 00000000  ................
 4660 10000000 e4020000 b8e4ffff 04000000  ................
 4670 00000000 10000000 f8020000 b4e4ffff  ................
 4680 08000000 00000000 10000000 0c030000  ................
 4690 b0e4ffff 08000000 00000000 10000000  ................
 46a0 20030000 ace4ffff 08000000 00000000   ...............
 46b0 10000000 34030000 a8e4ffff 04000000  ....4...........
 46c0 00000000 10000000 48030000 a4e4ffff  ........H.......
 46d0 04000000 00000000 10000000 5c030000  ............\...
 46e0 a0e4ffff 04000000 00000000 10000000  ................
 46f0 70030000 9ce4ffff 04000000 00000000  p...............
 4700 10000000 84030000 98e4ffff 04000000  ................
 4710 00000000 10000000 98030000 94e4ffff  ................
 4720 04000000 00000000 10000000 ac030000  ................
 4730 90e4ffff 05000000 00000000 10000000  ................
 4740 c0030000 8ce4ffff 05000000 00000000  ................
 4750 10000000 d4030000 88e4ffff 05000000  ................
 4760 00000000 10000000 e8030000 84e4ffff  ................
 4770 05000000 00000000 10000000 fc030000  ................
 4780 80e4ffff 05000000 00000000 10000000  ................
 4790 10040000 7ce4ffff 08000000 00000000  ....|...........
 47a0 10000000 24040000 78e4ffff 0a000000  ....$...x.......
 47b0 00000000 10000000 38040000 74e4ffff  ........8...t...
 47c0 05000000 00000000 10000000 4c040000  ............L...
 47d0 70e4ffff 05000000 00000000 10000000  p...............
 47e0 60040000 6ce4ffff 05000000 00000000  `...l...........
 47f0 10000000 74040000 68e4ffff 08000000  ....t...h.......
 4800 00000000 10000000 88040000 64e4ffff  ............d...
 4810 0a000000 00000000 10000000 9c040000  ................
 4820 60e4ffff 11000000 00000000 10000000  `...............
 4830 b0040000 6ce4ffff 11000000 00000000  ....l...........
 4840 10000000 c4040000 78e4ffff 11000000  ........x.......
 4850 00000000 10000000 d8040000 84e4ffff  ................
 4860 15000000 00000000 10000000 ec040000  ................
 4870 90e4ffff 19000000 00000000 10000000  ................
 4880 00050000 9ce4ffff 07000000 00000000  ................
 4890 10000000 14050000 98e4ffff 07000000  ................
 48a0 00000000 10000000 28050000 94e4ffff  ........(.......
 48b0 06000000 00000000 10000000 3c050000  ............<...
 48c0 90e4ffff 06000000 00000000 10000000  ................
 48d0 50050000 8ce4ffff 07000000 00000000  P...............
 48e0 10000000 64050000 88e4ffff 07000000  ....d...........
 48f0 00000000 10000000 78050000 84e4ffff  ........x.......
 4900 07000000 00000000 10000000 8c050000  ................
 4910 80e4ffff 04000000 00000000 10000000  ................
 4920 a0050000 7ce4ffff 04000000 00000000  ....|...........
 4930 10000000 b4050000 78e4ffff 19000000  ........x.......
 4940 00000000 10000000 c8050000 84e4ffff  ................
 4950 13000000 00000000 10000000 dc050000  ................
 4960 90e4ffff 13000000 00000000 10000000  ................
 4970 f0050000 9ce4ffff 0f000000 00000000  ................
 4980 14000000 04060000 98e4ffff 16000000  ................
 4990 00410e10 540e0800 24000000 1c060000  .A..T...$.......
 49a0 a0e4ffff 33000000 00420e10 410e1841  ....3....B..A..A
 49b0 0e208303 8e02670e 18410e10 420e0800  . ....g..A..B...
 49c0 28000000 44060000 b8e4ffff 75000000  (...D.......u...
 49d0 00420e10 420e1841 0e208304 8e038f02  .B..B..A. ......
 49e0 026b0e18 420e1042 0e080000 3c000000  .k..B..B....<...
 49f0 70060000 0ce5ffff ad000000 00420e10  p............B..
 4a00 420e1842 0e20420e 28410e30 83068c05  B..B. B.(A.0....
 4a10 8d048e03 8f020296 0e28420e 20420e18  .........(B. B..
 4a20 420e1042 0e08410e 30000000 00000000  B..B..A.0.......
Contents of section .preinit_array:
 5d60 20260000 00000000                     &......        
Contents of section .init_array:
 5d68 a0220000 00000000                    ."......        
Contents of section .fini_array:
 5d70 60220000 00000000                    `"......        
Contents of section .dynamic:
 5d78 01000000 00000000 81010000 00000000  ................
 5d88 01000000 00000000 8b010000 00000000  ................
 5d98 01000000 00000000 9a010000 00000000  ................
 5da8 01000000 00000000 a4010000 00000000  ................
 5db8 0c000000 00000000 00200000 00000000  ......... ......
 5dc8 0d000000 00000000 f82f0000 00000000  ........./......
 5dd8 20000000 00000000 605d0000 00000000   .......`]......
 5de8 21000000 00000000 08000000 00000000  !...............
 5df8 19000000 00000000 685d0000 00000000  ........h]......
 5e08 1b000000 00000000 08000000 00000000  ................
 5e18 1a000000 00000000 705d0000 00000000  ........p]......
 5e28 1c000000 00000000 08000000 00000000  ................
 5e38 f5feff6f 00000000 d8030000 00000000  ...o............
 5e48 05000000 00000000 f80f0000 00000000  ................
 5e58 06000000 00000000 50060000 00000000  ........P.......
 5e68 0a000000 00000000 b9040000 00000000  ................
 5e78 0b000000 00000000 18000000 00000000  ................
 5e88 15000000 00000000 00000000 00000000  ................
 5e98 03000000 00000000 e85f0000 00000000  ........._......
 5ea8 02000000 00000000 40020000 00000000  ........@.......
 5eb8 14000000 00000000 07000000 00000000  ................
 5ec8 17000000 00000000 98170000 00000000  ................
 5ed8 07000000 00000000 d0150000 00000000  ................
 5ee8 08000000 00000000 c8010000 00000000  ................
 5ef8 09000000 00000000 18000000 00000000  ................
 5f08 fbffff6f 00000000 00000008 00000000  ...o............
 5f18 feffff6f 00000000 80150000 00000000  ...o............
 5f28 ffffff6f 00000000 02000000 00000000  ...o............
 5f38 f0ffff6f 00000000 b2140000 00000000  ...o............
 5f48 f9ffff6f 00000000 0c000000 00000000  ...o............
 5f58 00000000 00000000 00000000 00000000  ................
 5f68 00000000 00000000 00000000 00000000  ................
 5f78 00000000 00000000 00000000 00000000  ................
 5f88 00000000 00000000 00000000 00000000  ................
 5f98 00000000 00000000 00000000 00000000  ................
Contents of section .got:
 5fa8 00000000 00000000 00000000 00000000  ................
 5fb8 00000000 00000000 00000000 00000000  ................
 5fc8 e02f0000 00000000 00000000 00000000  ./..............
 5fd8 00000000 00000000 00000000 00000000  ................
Contents of section .got.plt:
 5fe8 785d0000 00000000 00000000 00000000  x]..............
 5ff8 00000000 00000000 36200000 00000000  ........6 ......
 6008 46200000 00000000 56200000 00000000  F ......V ......
 6018 66200000 00000000 76200000 00000000  f ......v ......
 6028 86200000 00000000 96200000 00000000  . ....... ......
 6038 a6200000 00000000 b6200000 00000000  . ....... ......
 6048 c6200000 00000000 d6200000 00000000  . ....... ......
 6058 e6200000 00000000 f6200000 00000000  . ....... ......
 6068 06210000 00000000 16210000 00000000  .!.......!......
 6078 26210000 00000000 36210000 00000000  &!......6!......
 6088 46210000 00000000 56210000 00000000  F!......V!......
 6098 66210000 00000000 76210000 00000000  f!......v!......
 60a8 86210000 00000000 96210000 00000000  .!.......!......
 60b8 a6210000 00000000                    .!......        
Contents of section .data:
 60c0 00000000 00000000 c8600000 00000000  .........`......
 60d0 1f410000 00000000 00000000 00000000  .A..............
 60e0 d02f0000 00000000 e82f0000 00000000  ./......./......
 60f0 f02f0000 00000000 d82f0000 00000000  ./......./......
 6100 b02f0000 00000000 c02f0000 00000000  ./......./......

Disassembly of section .init:

0000000000002000 <.init>:
    2000:	f3 0f 1e fa          	endbr64
    2004:	48 83 ec 08          	sub    rsp,0x8
    2008:	48 8b 05 b1 3f 00 00 	mov    rax,QWORD PTR [rip+0x3fb1]        # 5fc0 <__gmon_start__@Base>
    200f:	48 85 c0             	test   rax,rax
    2012:	74 02                	je     2016 <__safestack_unsafe_stack_ptr@@Base+0x2016>
    2014:	ff d0                	call   rax
    2016:	48 83 c4 08          	add    rsp,0x8
    201a:	c3                   	ret

Disassembly of section .plt:

0000000000002020 <free@plt-0x10>:
    2020:	ff 35 ca 3f 00 00    	push   QWORD PTR [rip+0x3fca]        # 5ff0 <_IO_stdin_used@@Base+0x1ff0>
    2026:	ff 25 cc 3f 00 00    	jmp    QWORD PTR [rip+0x3fcc]        # 5ff8 <_IO_stdin_used@@Base+0x1ff8>
    202c:	0f 1f 40 00          	nop    DWORD PTR [rax+0x0]

0000000000002030 <free@plt>:
    2030:	ff 25 ca 3f 00 00    	jmp    QWORD PTR [rip+0x3fca]        # 6000 <free@GLIBC_2.2.5>
    2036:	68 00 00 00 00       	push   0x0
    203b:	e9 e0 ff ff ff       	jmp    2020 <__safestack_unsafe_stack_ptr@@Base+0x2020>

0000000000002040 <abort@plt>:
    2040:	ff 25 c2 3f 00 00    	jmp    QWORD PTR [rip+0x3fc2]        # 6008 <abort@GLIBC_2.2.5>
    2046:	68 01 00 00 00       	push   0x1
    204b:	e9 d0 ff ff ff       	jmp    2020 <__safestack_unsafe_stack_ptr@@Base+0x2020>

0000000000002050 <__errno_location@plt>:
    2050:	ff 25 ba 3f 00 00    	jmp    QWORD PTR [rip+0x3fba]        # 6010 <__errno_location@GLIBC_2.2.5>
    2056:	68 02 00 00 00       	push   0x2
    205b:	e9 c0 ff ff ff       	jmp    2020 <__safestack_unsafe_stack_ptr@@Base+0x2020>

0000000000002060 <puts@plt>:
    2060:	ff 25 b2 3f 00 00    	jmp    QWORD PTR [rip+0x3fb2]        # 6018 <puts@GLIBC_2.2.5>
    2066:	68 03 00 00 00       	push   0x3
    206b:	e9 b0 ff ff ff       	jmp    2020 <__safestack_unsafe_stack_ptr@@Base+0x2020>

0000000000002070 <getpid@plt>:
    2070:	ff 25 aa 3f 00 00    	jmp    QWORD PTR [rip+0x3faa]        # 6020 <getpid@GLIBC_2.2.5>
    2076:	68 04 00 00 00       	push   0x4
    207b:	e9 a0 ff ff ff       	jmp    2020 <__safestack_unsafe_stack_ptr@@Base+0x2020>

0000000000002080 <printf@plt>:
    2080:	ff 25 a2 3f 00 00    	jmp    QWORD PTR [rip+0x3fa2]        # 6028 <printf@GLIBC_2.2.5>
    2086:	68 05 00 00 00       	push   0x5
    208b:	e9 90 ff ff ff       	jmp    2020 <__safestack_unsafe_stack_ptr@@Base+0x2020>

0000000000002090 <pthread_key_create@plt>:
    2090:	ff 25 9a 3f 00 00    	jmp    QWORD PTR [rip+0x3f9a]        # 6030 <pthread_key_create@GLIBC_2.34>
    2096:	68 06 00 00 00       	push   0x6
    209b:	e9 80 ff ff ff       	jmp    2020 <__safestack_unsafe_stack_ptr@@Base+0x2020>

00000000000020a0 <memset@plt>:
    20a0:	ff 25 92 3f 00 00    	jmp    QWORD PTR [rip+0x3f92]        # 6038 <memset@GLIBC_2.2.5>
    20a6:	68 07 00 00 00       	push   0x7
    20ab:	e9 70 ff ff ff       	jmp    2020 <__safestack_unsafe_stack_ptr@@Base+0x2020>

00000000000020b0 <pthread_attr_init@plt>:
    20b0:	ff 25 8a 3f 00 00    	jmp    QWORD PTR [rip+0x3f8a]        # 6040 <pthread_attr_init@GLIBC_2.2.5>
    20b6:	68 08 00 00 00       	push   0x8
    20bb:	e9 60 ff ff ff       	jmp    2020 <__safestack_unsafe_stack_ptr@@Base+0x2020>

00000000000020c0 <__tls_get_addr@plt>:
    20c0:	ff 25 82 3f 00 00    	jmp    QWORD PTR [rip+0x3f82]        # 6048 <__tls_get_addr@GLIBC_2.3>
    20c6:	68 09 00 00 00       	push   0x9
    20cb:	e9 50 ff ff ff       	jmp    2020 <__safestack_unsafe_stack_ptr@@Base+0x2020>

00000000000020d0 <fprintf@plt>:
    20d0:	ff 25 7a 3f 00 00    	jmp    QWORD PTR [rip+0x3f7a]        # 6050 <fprintf@GLIBC_2.2.5>
    20d6:	68 0a 00 00 00       	push   0xa
    20db:	e9 40 ff ff ff       	jmp    2020 <__safestack_unsafe_stack_ptr@@Base+0x2020>

00000000000020e0 <syscall@plt>:
    20e0:	ff 25 72 3f 00 00    	jmp    QWORD PTR [rip+0x3f72]        # 6058 <syscall@GLIBC_2.2.5>
    20e6:	68 0b 00 00 00       	push   0xb
    20eb:	e9 30 ff ff ff       	jmp    2020 <__safestack_unsafe_stack_ptr@@Base+0x2020>

00000000000020f0 <strtol@plt>:
    20f0:	ff 25 6a 3f 00 00    	jmp    QWORD PTR [rip+0x3f6a]        # 6060 <strtol@GLIBC_2.2.5>
    20f6:	68 0c 00 00 00       	push   0xc
    20fb:	e9 20 ff ff ff       	jmp    2020 <__safestack_unsafe_stack_ptr@@Base+0x2020>

0000000000002100 <gets@plt>:
    2100:	ff 25 62 3f 00 00    	jmp    QWORD PTR [rip+0x3f62]        # 6068 <gets@GLIBC_2.2.5>
    2106:	68 0d 00 00 00       	push   0xd
    210b:	e9 10 ff ff ff       	jmp    2020 <__safestack_unsafe_stack_ptr@@Base+0x2020>

0000000000002110 <pthread_attr_getguardsize@plt>:
    2110:	ff 25 5a 3f 00 00    	jmp    QWORD PTR [rip+0x3f5a]        # 6070 <pthread_attr_getguardsize@GLIBC_2.34>
    2116:	68 0e 00 00 00       	push   0xe
    211b:	e9 00 ff ff ff       	jmp    2020 <__safestack_unsafe_stack_ptr@@Base+0x2020>

0000000000002120 <pthread_mutex_unlock@plt>:
    2120:	ff 25 52 3f 00 00    	jmp    QWORD PTR [rip+0x3f52]        # 6078 <pthread_mutex_unlock@GLIBC_2.2.5>
    2126:	68 0f 00 00 00       	push   0xf
    212b:	e9 f0 fe ff ff       	jmp    2020 <__safestack_unsafe_stack_ptr@@Base+0x2020>

0000000000002130 <malloc@plt>:
    2130:	ff 25 4a 3f 00 00    	jmp    QWORD PTR [rip+0x3f4a]        # 6080 <malloc@GLIBC_2.2.5>
    2136:	68 10 00 00 00       	push   0x10
    213b:	e9 e0 fe ff ff       	jmp    2020 <__safestack_unsafe_stack_ptr@@Base+0x2020>

0000000000002140 <dlsym@plt>:
    2140:	ff 25 42 3f 00 00    	jmp    QWORD PTR [rip+0x3f42]        # 6088 <dlsym@GLIBC_2.34>
    2146:	68 11 00 00 00       	push   0x11
    214b:	e9 d0 fe ff ff       	jmp    2020 <__safestack_unsafe_stack_ptr@@Base+0x2020>

0000000000002150 <pthread_attr_destroy@plt>:
    2150:	ff 25 3a 3f 00 00    	jmp    QWORD PTR [rip+0x3f3a]        # 6090 <pthread_attr_destroy@GLIBC_2.2.5>
    2156:	68 12 00 00 00       	push   0x12
    215b:	e9 c0 fe ff ff       	jmp    2020 <__safestack_unsafe_stack_ptr@@Base+0x2020>

0000000000002160 <getrlimit@plt>:
    2160:	ff 25 32 3f 00 00    	jmp    QWORD PTR [rip+0x3f32]        # 6098 <getrlimit@GLIBC_2.2.5>
    2166:	68 13 00 00 00       	push   0x13
    216b:	e9 b0 fe ff ff       	jmp    2020 <__safestack_unsafe_stack_ptr@@Base+0x2020>

0000000000002170 <dlvsym@plt>:
    2170:	ff 25 2a 3f 00 00    	jmp    QWORD PTR [rip+0x3f2a]        # 60a0 <dlvsym@GLIBC_2.34>
    2176:	68 14 00 00 00       	push   0x14
    217b:	e9 a0 fe ff ff       	jmp    2020 <__safestack_unsafe_stack_ptr@@Base+0x2020>

0000000000002180 <pthread_mutex_lock@plt>:
    2180:	ff 25 22 3f 00 00    	jmp    QWORD PTR [rip+0x3f22]        # 60a8 <pthread_mutex_lock@GLIBC_2.2.5>
    2186:	68 15 00 00 00       	push   0x15
    218b:	e9 90 fe ff ff       	jmp    2020 <__safestack_unsafe_stack_ptr@@Base+0x2020>

0000000000002190 <pthread_attr_getstacksize@plt>:
    2190:	ff 25 1a 3f 00 00    	jmp    QWORD PTR [rip+0x3f1a]        # 60b0 <pthread_attr_getstacksize@GLIBC_2.34>
    2196:	68 16 00 00 00       	push   0x16
    219b:	e9 80 fe ff ff       	jmp    2020 <__safestack_unsafe_stack_ptr@@Base+0x2020>

00000000000021a0 <pthread_setspecific@plt>:
    21a0:	ff 25 12 3f 00 00    	jmp    QWORD PTR [rip+0x3f12]        # 60b8 <pthread_setspecific@GLIBC_2.34>
    21a6:	68 17 00 00 00       	push   0x17
    21ab:	e9 70 fe ff ff       	jmp    2020 <__safestack_unsafe_stack_ptr@@Base+0x2020>

Disassembly of section .plt.got:

00000000000021b0 <__cxa_finalize@plt>:
    21b0:	ff 25 22 3e 00 00    	jmp    QWORD PTR [rip+0x3e22]        # 5fd8 <__cxa_finalize@GLIBC_2.2.5>
    21b6:	66 90                	xchg   ax,ax

Disassembly of section .text:

00000000000021c0 <_start@@Base>:
    21c0:	             f3 0f 1e fa          	endbr64
    21c4:	             31 ed                	xor    ebp,ebp
    21c6:	             49 89 d1             	mov    r9,rdx
    21c9:	             5e                   	pop    rsi
    21ca:	             48 89 e2             	mov    rdx,rsp
    21cd:	             48 83 e4 f0          	and    rsp,0xfffffffffffffff0
    21d1:	             50                   	push   rax
    21d2:	             54                   	push   rsp
    21d3:	             45 31 c0             	xor    r8d,r8d
    21d6:	             31 c9                	xor    ecx,ecx
    21d8:	             48 8d 3d 21 0d 00 00 	lea    rdi,[rip+0xd21]        # 2f00 <main@@Base>
    21df:	             ff 15 cb 3d 00 00    	call   QWORD PTR [rip+0x3dcb]        # 5fb0 <__libc_start_main@GLIBC_2.34>
    21e5:	             f4                   	hlt
    21e6:	             66 2e 0f 1f 84 00 00 	cs nop WORD PTR [rax+rax*1+0x0]
    21ed:	             00 00 00 
    21f0:	/----------> 48 8d 3d 19 3f 00 00 	lea    rdi,[rip+0x3f19]        # 6110 <__bss_start@@Base>
    21f7:	|            48 8d 05 12 3f 00 00 	lea    rax,[rip+0x3f12]        # 6110 <__bss_start@@Base>
    21fe:	|            48 39 f8             	cmp    rax,rdi
    2201:	|        /-- 74 15                	je     2218 <_start@@Base+0x58>
    2203:	|        |   48 8b 05 ae 3d 00 00 	mov    rax,QWORD PTR [rip+0x3dae]        # 5fb8 <_ITM_deregisterTMCloneTable@Base>
    220a:	|        |   48 85 c0             	test   rax,rax
    220d:	|        +-- 74 09                	je     2218 <_start@@Base+0x58>
    220f:	|        |   ff e0                	jmp    rax
    2211:	|        |   0f 1f 80 00 00 00 00 	nop    DWORD PTR [rax+0x0]
    2218:	|        \-> c3                   	ret
    2219:	|            0f 1f 80 00 00 00 00 	nop    DWORD PTR [rax+0x0]
    2220:	|  /-------> 48 8d 3d e9 3e 00 00 	lea    rdi,[rip+0x3ee9]        # 6110 <__bss_start@@Base>
    2227:	|  |         48 8d 35 e2 3e 00 00 	lea    rsi,[rip+0x3ee2]        # 6110 <__bss_start@@Base>
    222e:	|  |         48 29 fe             	sub    rsi,rdi
    2231:	|  |         48 89 f0             	mov    rax,rsi
    2234:	|  |         48 c1 ee 3f          	shr    rsi,0x3f
    2238:	|  |         48 c1 f8 03          	sar    rax,0x3
    223c:	|  |         48 01 c6             	add    rsi,rax
    223f:	|  |         48 d1 fe             	sar    rsi,1
    2242:	|  |     /-- 74 14                	je     2258 <_start@@Base+0x98>
    2244:	|  |     |   48 8b 05 85 3d 00 00 	mov    rax,QWORD PTR [rip+0x3d85]        # 5fd0 <_ITM_registerTMCloneTable@Base>
    224b:	|  |     |   48 85 c0             	test   rax,rax
    224e:	|  |     +-- 74 08                	je     2258 <_start@@Base+0x98>
    2250:	|  |     |   ff e0                	jmp    rax
    2252:	|  |     |   66 0f 1f 44 00 00    	nop    WORD PTR [rax+rax*1+0x0]
    2258:	|  |     \-> c3                   	ret
    2259:	|  |         0f 1f 80 00 00 00 00 	nop    DWORD PTR [rax+0x0]
    2260:	|  |         f3 0f 1e fa          	endbr64
    2264:	|  |         80 3d a5 3e 00 00 00 	cmp    BYTE PTR [rip+0x3ea5],0x0        # 6110 <__bss_start@@Base>
    226b:	|  |  /----- 75 2b                	jne    2298 <_start@@Base+0xd8>
    226d:	|  |  |      55                   	push   rbp
    226e:	|  |  |      48 83 3d 62 3d 00 00 	cmp    QWORD PTR [rip+0x3d62],0x0        # 5fd8 <__cxa_finalize@GLIBC_2.2.5>
    2275:	|  |  |      00 
    2276:	|  |  |      48 89 e5             	mov    rbp,rsp
    2279:	|  |  |  /-- 74 0c                	je     2287 <_start@@Base+0xc7>
    227b:	|  |  |  |   48 8b 3d 46 3e 00 00 	mov    rdi,QWORD PTR [rip+0x3e46]        # 60c8 <__data_start@@Base+0x8>
    2282:	|  |  |  |   e8 29 ff ff ff       	call   21b0 <__cxa_finalize@plt>
    2287:	\--|--|--\-X e8 64 ff ff ff       	call   21f0 <_start@@Base+0x30>
    228c:	   |  |      c6 05 7d 3e 00 00 01 	mov    BYTE PTR [rip+0x3e7d],0x1        # 6110 <__bss_start@@Base>
    2293:	   |  |      5d                   	pop    rbp
    2294:	   |  |      c3                   	ret
    2295:	   |  |      0f 1f 00             	nop    DWORD PTR [rax]
    2298:	   |  \----> c3                   	ret
    2299:	   |         0f 1f 80 00 00 00 00 	nop    DWORD PTR [rax+0x0]
    22a0:	   |         f3 0f 1e fa          	endbr64
    22a4:	   \-------- e9 77 ff ff ff       	jmp    2220 <_start@@Base+0x60>
    22a9:	             0f 1f 00             	nop    DWORD PTR [rax]

00000000000022ac <__interceptor_trampoline_pthread_create@@Base>:
    22ac:	e9 0f 00 00 00       	jmp    22c0 <___interceptor_pthread_create@@Base>
    22b1:	66 2e 0f 1f 84 00 00 	cs nop WORD PTR [rax+rax*1+0x0]
    22b8:	00 00 00 
    22bb:	0f 1f 44 00 00       	nop    DWORD PTR [rax+rax*1+0x0]

00000000000022c0 <___interceptor_pthread_create@@Base>:
    22c0:	                f3 0f 1e fa          	endbr64
    22c4:	                55                   	push   rbp
    22c5:	                41 57                	push   r15
    22c7:	                41 56                	push   r14
    22c9:	                41 55                	push   r13
    22cb:	                41 54                	push   r12
    22cd:	                53                   	push   rbx
    22ce:	                48 83 ec 58          	sub    rsp,0x58
    22d2:	                49 89 cf             	mov    r15,rcx
    22d5:	                49 89 d4             	mov    r12,rdx
    22d8:	                48 89 f3             	mov    rbx,rsi
    22db:	                49 89 fe             	mov    r14,rdi
    22de:	                48 8d 3d 43 3e 00 00 	lea    rdi,[rip+0x3e43]        # 6128 <__bss_start@@Base+0x18>
    22e5:	                e8 96 fe ff ff       	call   2180 <pthread_mutex_lock@plt>
    22ea:	                80 3d 5f 3e 00 00 00 	cmp    BYTE PTR [rip+0x3e5f],0x0        # 6150 <__bss_start@@Base+0x40>
    22f1:	            /-- 75 28                	jne    231b <___interceptor_pthread_create@@Base+0x5b>
    22f3:	            |   48 8d 3d 7c 1d 00 00 	lea    rdi,[rip+0x1d7c]        # 4076 <_IO_stdin_used@@Base+0x76>
    22fa:	            |   48 8d 35 17 3e 00 00 	lea    rsi,[rip+0x3e17]        # 6118 <__bss_start@@Base+0x8>
    2301:	            |   48 8d 15 a4 ff ff ff 	lea    rdx,[rip+0xffffffffffffffa4]        # 22ac <__interceptor_trampoline_pthread_create@@Base>
    2308:	            |   48 8d 0d 9d ff ff ff 	lea    rcx,[rip+0xffffffffffffff9d]        # 22ac <__interceptor_trampoline_pthread_create@@Base>
    230f:	            |   e8 0c 07 00 00       	call   2a20 <__get_unsafe_stack_ptr@@Base+0x20>
    2314:	            |   c6 05 35 3e 00 00 01 	mov    BYTE PTR [rip+0x3e35],0x1        # 6150 <__bss_start@@Base+0x40>
    231b:	            \-> 48 8d 3d 06 3e 00 00 	lea    rdi,[rip+0x3e06]        # 6128 <__bss_start@@Base+0x18>
    2322:	                e8 f9 fd ff ff       	call   2120 <pthread_mutex_unlock@plt>
    2327:	                48 c7 44 24 10 00 00 	mov    QWORD PTR [rsp+0x10],0x0
    232e:	                00 00 
    2330:	                48 c7 44 24 18 00 00 	mov    QWORD PTR [rsp+0x18],0x0
    2337:	                00 00 
    2339:	                48 85 db             	test   rbx,rbx
    233c:	            /-- 0f 84 db 00 00 00    	je     241d <___interceptor_pthread_create@@Base+0x15d>
    2342:	            |   48 8d 74 24 10       	lea    rsi,[rsp+0x10]
    2347:	            |   48 89 df             	mov    rdi,rbx
    234a:	            |   e8 41 fe ff ff       	call   2190 <pthread_attr_getstacksize@plt>
    234f:	            |   48 8d 74 24 18       	lea    rsi,[rsp+0x18]
    2354:	            |   48 89 df             	mov    rdi,rbx
    2357:	            |   e8 b4 fd ff ff       	call   2110 <pthread_attr_getguardsize@plt>
    235c:	            |   48 8b 54 24 10       	mov    rdx,QWORD PTR [rsp+0x10]
    2361:	            |   48 85 d2             	test   rdx,rdx
    2364:	      /-----|-- 0f 84 f0 00 00 00    	je     245a <___interceptor_pthread_create@@Base+0x19a>
    236a:	      |  /--|-> 48 83 c2 0f          	add    rdx,0xf
    236e:	      |  |  |   48 83 e2 f0          	and    rdx,0xfffffffffffffff0
    2372:	      |  |  |   48 89 54 24 10       	mov    QWORD PTR [rsp+0x10],rdx
    2377:	      |  |  |   4c 8b 6c 24 18       	mov    r13,QWORD PTR [rsp+0x18]
    237c:	      |  |  |   4c 01 ea             	add    rdx,r13
    237f:	/-----|--|--|-- 0f 82 05 01 00 00    	jb     248a <___interceptor_pthread_create@@Base+0x1ca>
    2385:	|     |  |  |   48 c7 04 24 00 00 00 	mov    QWORD PTR [rsp],0x0
    238c:	|     |  |  |   00 
    238d:	|     |  |  |   bf 09 00 00 00       	mov    edi,0x9
    2392:	|     |  |  |   31 f6                	xor    esi,esi
    2394:	|     |  |  |   b9 03 00 00 00       	mov    ecx,0x3
    2399:	|     |  |  |   41 b8 22 00 00 00    	mov    r8d,0x22
    239f:	|     |  |  |   41 b9 ff ff ff ff    	mov    r9d,0xffffffff
    23a5:	|     |  |  |   31 c0                	xor    eax,eax
    23a7:	|     |  |  |   e8 34 fd ff ff       	call   20e0 <syscall@plt>
    23ac:	|     |  |  |   48 83 f8 ff          	cmp    rax,0xffffffffffffffff
    23b0:	|  /--|--|--|-- 0f 84 04 01 00 00    	je     24ba <___interceptor_pthread_create@@Base+0x1fa>
    23b6:	|  |  |  |  |   48 89 c5             	mov    rbp,rax
    23b9:	|  |  |  |  |   bf 0a 00 00 00       	mov    edi,0xa
    23be:	|  |  |  |  |   48 89 c6             	mov    rsi,rax
    23c1:	|  |  |  |  |   4c 89 ea             	mov    rdx,r13
    23c4:	|  |  |  |  |   31 c9                	xor    ecx,ecx
    23c6:	|  |  |  |  |   31 c0                	xor    eax,eax
    23c8:	|  |  |  |  |   e8 13 fd ff ff       	call   20e0 <syscall@plt>
    23cd:	|  |  |  |  |   4c 01 ed             	add    rbp,r13
    23d0:	|  |  |  |  |   48 8b 44 24 10       	mov    rax,QWORD PTR [rsp+0x10]
    23d5:	|  |  |  |  |   48 8d 0c 28          	lea    rcx,[rax+rbp*1]
    23d9:	|  |  |  |  |   48 83 c1 d8          	add    rcx,0xffffffffffffffd8
    23dd:	|  |  |  |  |   4c 89 64 28 d8       	mov    QWORD PTR [rax+rbp*1-0x28],r12
    23e2:	|  |  |  |  |   4c 89 7c 28 e0       	mov    QWORD PTR [rax+rbp*1-0x20],r15
    23e7:	|  |  |  |  |   48 89 6c 28 e8       	mov    QWORD PTR [rax+rbp*1-0x18],rbp
    23ec:	|  |  |  |  |   48 89 44 28 f0       	mov    QWORD PTR [rax+rbp*1-0x10],rax
    23f1:	|  |  |  |  |   48 8b 54 24 18       	mov    rdx,QWORD PTR [rsp+0x18]
    23f6:	|  |  |  |  |   48 89 54 28 f8       	mov    QWORD PTR [rax+rbp*1-0x8],rdx
    23fb:	|  |  |  |  |   48 8d 15 ee 00 00 00 	lea    rdx,[rip+0xee]        # 24f0 <___interceptor_pthread_create@@Base+0x230>
    2402:	|  |  |  |  |   4c 89 f7             	mov    rdi,r14
    2405:	|  |  |  |  |   48 89 de             	mov    rsi,rbx
    2408:	|  |  |  |  |   ff 15 0a 3d 00 00    	call   QWORD PTR [rip+0x3d0a]        # 6118 <__bss_start@@Base+0x8>
    240e:	|  |  |  |  |   48 83 c4 58          	add    rsp,0x58
    2412:	|  |  |  |  |   5b                   	pop    rbx
    2413:	|  |  |  |  |   41 5c                	pop    r12
    2415:	|  |  |  |  |   41 5d                	pop    r13
    2417:	|  |  |  |  |   41 5e                	pop    r14
    2419:	|  |  |  |  |   41 5f                	pop    r15
    241b:	|  |  |  |  |   5d                   	pop    rbp
    241c:	|  |  |  |  |   c3                   	ret
    241d:	|  |  |  |  \-> 4c 8d 6c 24 20       	lea    r13,[rsp+0x20]
    2422:	|  |  |  |      4c 89 ef             	mov    rdi,r13
    2425:	|  |  |  |      e8 86 fc ff ff       	call   20b0 <pthread_attr_init@plt>
    242a:	|  |  |  |      48 8d 74 24 10       	lea    rsi,[rsp+0x10]
    242f:	|  |  |  |      4c 89 ef             	mov    rdi,r13
    2432:	|  |  |  |      e8 59 fd ff ff       	call   2190 <pthread_attr_getstacksize@plt>
    2437:	|  |  |  |      48 8d 74 24 18       	lea    rsi,[rsp+0x18]
    243c:	|  |  |  |      4c 89 ef             	mov    rdi,r13
    243f:	|  |  |  |      e8 cc fc ff ff       	call   2110 <pthread_attr_getguardsize@plt>
    2444:	|  |  |  |      4c 89 ef             	mov    rdi,r13
    2447:	|  |  |  |      e8 04 fd ff ff       	call   2150 <pthread_attr_destroy@plt>
    244c:	|  |  |  |      48 8b 54 24 10       	mov    rdx,QWORD PTR [rsp+0x10]
    2451:	|  |  |  |      48 85 d2             	test   rdx,rdx
    2454:	|  |  |  \----- 0f 85 10 ff ff ff    	jne    236a <___interceptor_pthread_create@@Base+0xaa>
    245a:	|  |  \-------> 48 8b 05 7f 3b 00 00 	mov    rax,QWORD PTR [rip+0x3b7f]        # 5fe0 <stderr@GLIBC_2.2.5>
    2461:	|  |            48 8b 38             	mov    rdi,QWORD PTR [rax]
    2464:	|  |            48 8d 35 99 1b 00 00 	lea    rsi,[rip+0x1b99]        # 4004 <_IO_stdin_used@@Base+0x4>
    246b:	|  |            48 8d 15 b4 1b 00 00 	lea    rdx,[rip+0x1bb4]        # 4026 <_IO_stdin_used@@Base+0x26>
    2472:	|  |            4c 8d 05 e5 1b 00 00 	lea    r8,[rip+0x1be5]        # 405e <_IO_stdin_used@@Base+0x5e>
    2479:	|  |            b9 e3 00 00 00       	mov    ecx,0xe3
    247e:	|  |            31 c0                	xor    eax,eax
    2480:	|  |            e8 4b fc ff ff       	call   20d0 <fprintf@plt>
    2485:	|  |            e8 b6 fb ff ff       	call   2040 <abort@plt>
    248a:	\--|----------> 48 8b 05 4f 3b 00 00 	mov    rax,QWORD PTR [rip+0x3b4f]        # 5fe0 <stderr@GLIBC_2.2.5>
    2491:	   |            48 8b 38             	mov    rdi,QWORD PTR [rax]
    2494:	   |            48 8d 35 69 1b 00 00 	lea    rsi,[rip+0x1b69]        # 4004 <_IO_stdin_used@@Base+0x4>
    249b:	   |            48 8d 15 84 1b 00 00 	lea    rdx,[rip+0x1b84]        # 4026 <_IO_stdin_used@@Base+0x26>
    24a2:	   |            4c 8d 05 a5 1b 00 00 	lea    r8,[rip+0x1ba5]        # 404e <_IO_stdin_used@@Base+0x4e>
    24a9:	   |            b9 5c 00 00 00       	mov    ecx,0x5c
    24ae:	   |            31 c0                	xor    eax,eax
    24b0:	   |            e8 1b fc ff ff       	call   20d0 <fprintf@plt>
    24b5:	   |            e8 86 fb ff ff       	call   2040 <abort@plt>
    24ba:	   \----------> 48 8b 05 1f 3b 00 00 	mov    rax,QWORD PTR [rip+0x3b1f]        # 5fe0 <stderr@GLIBC_2.2.5>
    24c1:	                48 8b 38             	mov    rdi,QWORD PTR [rax]
    24c4:	                48 8d 35 39 1b 00 00 	lea    rsi,[rip+0x1b39]        # 4004 <_IO_stdin_used@@Base+0x4>
    24cb:	                48 8d 15 54 1b 00 00 	lea    rdx,[rip+0x1b54]        # 4026 <_IO_stdin_used@@Base+0x26>
    24d2:	                4c 8d 05 8a 1b 00 00 	lea    r8,[rip+0x1b8a]        # 4063 <_IO_stdin_used@@Base+0x63>
    24d9:	                b9 5f 00 00 00       	mov    ecx,0x5f
    24de:	                31 c0                	xor    eax,eax
    24e0:	                e8 eb fb ff ff       	call   20d0 <fprintf@plt>
    24e5:	                e8 56 fb ff ff       	call   2040 <abort@plt>
    24ea:	                66 0f 1f 44 00 00    	nop    WORD PTR [rax+rax*1+0x0]
    24f0:	                f3 0f 1e fa          	endbr64
    24f4:	                55                   	push   rbp
    24f5:	                41 57                	push   r15
    24f7:	                41 56                	push   r14
    24f9:	                41 55                	push   r13
    24fb:	                41 54                	push   r12
    24fd:	                53                   	push   rbx
    24fe:	                50                   	push   rax
    24ff:	                4c 8b 77 18          	mov    r14,QWORD PTR [rdi+0x18]
    2503:	                4d 85 f6             	test   r14,r14
    2506:	            /-- 0f 88 80 00 00 00    	js     258c <___interceptor_pthread_create@@Base+0x2cc>
    250c:	            |   4c 8b 7f 20          	mov    r15,QWORD PTR [rdi+0x20]
    2510:	            |   4d 85 ff             	test   r15,r15
    2513:	         /--|-- 0f 88 a3 00 00 00    	js     25bc <___interceptor_pthread_create@@Base+0x2fc>
    2519:	         |  |   4c 8b 67 10          	mov    r12,QWORD PTR [rdi+0x10]
    251d:	         |  |   4f 8d 2c 34          	lea    r13,[r12+r14*1]
    2521:	         |  |   41 f6 c5 0f          	test   r13b,0xf
    2525:	      /--|--|-- 0f 85 c1 00 00 00    	jne    25ec <___interceptor_pthread_create@@Base+0x32c>
    252b:	      |  |  |   48 8b 2f             	mov    rbp,QWORD PTR [rdi]
    252e:	      |  |  |   48 8b 5f 08          	mov    rbx,QWORD PTR [rdi+0x8]
    2532:	      |  |  |   64 48 8b 04 25 00 00 	mov    rax,QWORD PTR fs:0x0
    2539:	      |  |  |   00 00 
    253b:	      |  |  |   48 03 05 66 3a 00 00 	add    rax,QWORD PTR [rip+0x3a66]        # 5fa8 <__safestack_unsafe_stack_ptr@@Base+0x5fa8>
    2542:	      |  |  |   4c 89 28             	mov    QWORD PTR [rax],r13
    2545:	      |  |  |   66 66 66 64 48 8b 04 	data16 data16 data16 mov rax,QWORD PTR fs:0x0
    254c:	      |  |  |   25 00 00 00 00 
    2551:	      |  |  |   4c 89 a0 e8 ff ff ff 	mov    QWORD PTR [rax-0x18],r12
    2558:	      |  |  |   4c 89 b0 f0 ff ff ff 	mov    QWORD PTR [rax-0x10],r14
    255f:	      |  |  |   4c 89 b8 f8 ff ff ff 	mov    QWORD PTR [rax-0x8],r15
    2566:	      |  |  |   8b 3d b4 3b 00 00    	mov    edi,DWORD PTR [rip+0x3bb4]        # 6120 <__bss_start@@Base+0x10>
    256c:	      |  |  |   be 01 00 00 00       	mov    esi,0x1
    2571:	      |  |  |   e8 2a fc ff ff       	call   21a0 <pthread_setspecific@plt>
    2576:	      |  |  |   48 89 df             	mov    rdi,rbx
    2579:	      |  |  |   48 89 e8             	mov    rax,rbp
    257c:	      |  |  |   48 83 c4 08          	add    rsp,0x8
    2580:	      |  |  |   5b                   	pop    rbx
    2581:	      |  |  |   41 5c                	pop    r12
    2583:	      |  |  |   41 5d                	pop    r13
    2585:	      |  |  |   41 5e                	pop    r14
    2587:	      |  |  |   41 5f                	pop    r15
    2589:	      |  |  |   5d                   	pop    rbp
    258a:	      |  |  |   ff e0                	jmp    rax
    258c:	      |  |  \-> 48 8b 05 4d 3a 00 00 	mov    rax,QWORD PTR [rip+0x3a4d]        # 5fe0 <stderr@GLIBC_2.2.5>
    2593:	      |  |      48 8b 38             	mov    rdi,QWORD PTR [rax]
    2596:	      |  |      48 8d 35 67 1a 00 00 	lea    rsi,[rip+0x1a67]        # 4004 <_IO_stdin_used@@Base+0x4>
    259d:	      |  |      48 8d 15 82 1a 00 00 	lea    rdx,[rip+0x1a82]        # 4026 <_IO_stdin_used@@Base+0x26>
    25a4:	      |  |      4c 8d 05 da 1a 00 00 	lea    r8,[rip+0x1ada]        # 4085 <_IO_stdin_used@@Base+0x85>
    25ab:	      |  |      b9 65 00 00 00       	mov    ecx,0x65
    25b0:	      |  |      31 c0                	xor    eax,eax
    25b2:	      |  |      e8 19 fb ff ff       	call   20d0 <fprintf@plt>
    25b7:	      |  |      e8 84 fa ff ff       	call   2040 <abort@plt>
    25bc:	      |  \----> 48 8b 05 1d 3a 00 00 	mov    rax,QWORD PTR [rip+0x3a1d]        # 5fe0 <stderr@GLIBC_2.2.5>
    25c3:	      |         48 8b 38             	mov    rdi,QWORD PTR [rax]
    25c6:	      |         48 8d 35 37 1a 00 00 	lea    rsi,[rip+0x1a37]        # 4004 <_IO_stdin_used@@Base+0x4>
    25cd:	      |         48 8d 15 52 1a 00 00 	lea    rdx,[rip+0x1a52]        # 4026 <_IO_stdin_used@@Base+0x26>
    25d4:	      |         4c 8d 05 d0 1a 00 00 	lea    r8,[rip+0x1ad0]        # 40ab <_IO_stdin_used@@Base+0xab>
    25db:	      |         b9 66 00 00 00       	mov    ecx,0x66
    25e0:	      |         31 c0                	xor    eax,eax
    25e2:	      |         e8 e9 fa ff ff       	call   20d0 <fprintf@plt>
    25e7:	      |         e8 54 fa ff ff       	call   2040 <abort@plt>
    25ec:	      \-------> 48 8b 05 ed 39 00 00 	mov    rax,QWORD PTR [rip+0x39ed]        # 5fe0 <stderr@GLIBC_2.2.5>
    25f3:	                48 8b 38             	mov    rdi,QWORD PTR [rax]
    25f6:	                48 8d 35 07 1a 00 00 	lea    rsi,[rip+0x1a07]        # 4004 <_IO_stdin_used@@Base+0x4>
    25fd:	                48 8d 15 22 1a 00 00 	lea    rdx,[rip+0x1a22]        # 4026 <_IO_stdin_used@@Base+0x26>
    2604:	                4c 8d 05 c7 1a 00 00 	lea    r8,[rip+0x1ac7]        # 40d2 <_IO_stdin_used@@Base+0xd2>
    260b:	                b9 68 00 00 00       	mov    ecx,0x68
    2610:	                31 c0                	xor    eax,eax
    2612:	                e8 b9 fa ff ff       	call   20d0 <fprintf@plt>
    2617:	                e8 24 fa ff ff       	call   2040 <abort@plt>
    261c:	                0f 1f 40 00          	nop    DWORD PTR [rax+0x0]

0000000000002620 <__safestack_init@@Base>:
    2620:	                f3 0f 1e fa          	endbr64
    2624:	                41 57                	push   r15
    2626:	                41 56                	push   r14
    2628:	                53                   	push   rbx
    2629:	                48 83 ec 20          	sub    rsp,0x20
    262d:	                48 8d 74 24 10       	lea    rsi,[rsp+0x10]
    2632:	                bf 03 00 00 00       	mov    edi,0x3
    2637:	                e8 24 fb ff ff       	call   2160 <getrlimit@plt>
    263c:	                4c 8b 74 24 10       	mov    r14,QWORD PTR [rsp+0x10]
    2641:	                49 83 fe ff          	cmp    r14,0xffffffffffffffff
    2645:	                b9 00 00 80 02       	mov    ecx,0x2800000
    264a:	                4c 0f 44 f1          	cmove  r14,rcx
    264e:	                85 c0                	test   eax,eax
    2650:	                4c 0f 45 f1          	cmovne r14,rcx
    2654:	                49 81 fe 00 f0 ff ff 	cmp    r14,0xfffffffffffff000
    265b:	         /----- 0f 83 cb 00 00 00    	jae    272c <__safestack_init@@Base+0x10c>
    2661:	         |      49 8d 96 00 10 00 00 	lea    rdx,[r14+0x1000]
    2668:	         |      48 c7 04 24 00 00 00 	mov    QWORD PTR [rsp],0x0
    266f:	         |      00 
    2670:	         |      bf 09 00 00 00       	mov    edi,0x9
    2675:	         |      31 f6                	xor    esi,esi
    2677:	         |      b9 03 00 00 00       	mov    ecx,0x3
    267c:	         |      41 b8 22 00 00 00    	mov    r8d,0x22
    2682:	         |      41 b9 ff ff ff ff    	mov    r9d,0xffffffff
    2688:	         |      31 c0                	xor    eax,eax
    268a:	         |      e8 51 fa ff ff       	call   20e0 <syscall@plt>
    268f:	         |      48 83 f8 ff          	cmp    rax,0xffffffffffffffff
    2693:	         |  /-- 0f 84 c3 00 00 00    	je     275c <__safestack_init@@Base+0x13c>
    2699:	         |  |   48 89 c3             	mov    rbx,rax
    269c:	         |  |   bf 0a 00 00 00       	mov    edi,0xa
    26a1:	         |  |   ba 00 10 00 00       	mov    edx,0x1000
    26a6:	         |  |   48 89 c6             	mov    rsi,rax
    26a9:	         |  |   31 c9                	xor    ecx,ecx
    26ab:	         |  |   31 c0                	xor    eax,eax
    26ad:	         |  |   e8 2e fa ff ff       	call   20e0 <syscall@plt>
    26b2:	         |  |   4d 85 f6             	test   r14,r14
    26b5:	      /--|--|-- 0f 88 d1 00 00 00    	js     278c <__safestack_init@@Base+0x16c>
    26bb:	      |  |  |   4e 8d 3c 33          	lea    r15,[rbx+r14*1]
    26bf:	      |  |  |   49 81 c7 00 10 00 00 	add    r15,0x1000
    26c6:	      |  |  |   41 f6 c7 0f          	test   r15b,0xf
    26ca:	   /--|--|--|-- 0f 85 ec 00 00 00    	jne    27bc <__safestack_init@@Base+0x19c>
    26d0:	   |  |  |  |   48 81 c3 00 10 00 00 	add    rbx,0x1000
    26d7:	   |  |  |  |   64 48 8b 04 25 00 00 	mov    rax,QWORD PTR fs:0x0
    26de:	   |  |  |  |   00 00 
    26e0:	   |  |  |  |   48 03 05 c1 38 00 00 	add    rax,QWORD PTR [rip+0x38c1]        # 5fa8 <__safestack_unsafe_stack_ptr@@Base+0x5fa8>
    26e7:	   |  |  |  |   4c 89 38             	mov    QWORD PTR [rax],r15
    26ea:	   |  |  |  |   66 66 66 64 48 8b 04 	data16 data16 data16 mov rax,QWORD PTR fs:0x0
    26f1:	   |  |  |  |   25 00 00 00 00 
    26f6:	   |  |  |  |   48 89 98 e8 ff ff ff 	mov    QWORD PTR [rax-0x18],rbx
    26fd:	   |  |  |  |   4c 89 b0 f0 ff ff ff 	mov    QWORD PTR [rax-0x10],r14
    2704:	   |  |  |  |   48 c7 80 f8 ff ff ff 	mov    QWORD PTR [rax-0x8],0x1000
    270b:	   |  |  |  |   00 10 00 00 
    270f:	   |  |  |  |   48 8d 3d 0a 3a 00 00 	lea    rdi,[rip+0x3a0a]        # 6120 <__bss_start@@Base+0x10>
    2716:	   |  |  |  |   48 8d 35 d3 00 00 00 	lea    rsi,[rip+0xd3]        # 27f0 <__safestack_init@@Base+0x1d0>
    271d:	   |  |  |  |   e8 6e f9 ff ff       	call   2090 <pthread_key_create@plt>
    2722:	   |  |  |  |   48 83 c4 20          	add    rsp,0x20
    2726:	   |  |  |  |   5b                   	pop    rbx
    2727:	   |  |  |  |   41 5e                	pop    r14
    2729:	   |  |  |  |   41 5f                	pop    r15
    272b:	   |  |  |  |   c3                   	ret
    272c:	   |  |  \--|-> 48 8b 05 ad 38 00 00 	mov    rax,QWORD PTR [rip+0x38ad]        # 5fe0 <stderr@GLIBC_2.2.5>
    2733:	   |  |     |   48 8b 38             	mov    rdi,QWORD PTR [rax]
    2736:	   |  |     |   48 8d 35 c7 18 00 00 	lea    rsi,[rip+0x18c7]        # 4004 <_IO_stdin_used@@Base+0x4>
    273d:	   |  |     |   48 8d 15 e2 18 00 00 	lea    rdx,[rip+0x18e2]        # 4026 <_IO_stdin_used@@Base+0x26>
    2744:	   |  |     |   4c 8d 05 03 19 00 00 	lea    r8,[rip+0x1903]        # 404e <_IO_stdin_used@@Base+0x4e>
    274b:	   |  |     |   b9 5c 00 00 00       	mov    ecx,0x5c
    2750:	   |  |     |   31 c0                	xor    eax,eax
    2752:	   |  |     |   e8 79 f9 ff ff       	call   20d0 <fprintf@plt>
    2757:	   |  |     |   e8 e4 f8 ff ff       	call   2040 <abort@plt>
    275c:	   |  |     \-> 48 8b 05 7d 38 00 00 	mov    rax,QWORD PTR [rip+0x387d]        # 5fe0 <stderr@GLIBC_2.2.5>
    2763:	   |  |         48 8b 38             	mov    rdi,QWORD PTR [rax]
    2766:	   |  |         48 8d 35 97 18 00 00 	lea    rsi,[rip+0x1897]        # 4004 <_IO_stdin_used@@Base+0x4>
    276d:	   |  |         48 8d 15 b2 18 00 00 	lea    rdx,[rip+0x18b2]        # 4026 <_IO_stdin_used@@Base+0x26>
    2774:	   |  |         4c 8d 05 e8 18 00 00 	lea    r8,[rip+0x18e8]        # 4063 <_IO_stdin_used@@Base+0x63>
    277b:	   |  |         b9 5f 00 00 00       	mov    ecx,0x5f
    2780:	   |  |         31 c0                	xor    eax,eax
    2782:	   |  |         e8 49 f9 ff ff       	call   20d0 <fprintf@plt>
    2787:	   |  |         e8 b4 f8 ff ff       	call   2040 <abort@plt>
    278c:	   |  \-------> 48 8b 05 4d 38 00 00 	mov    rax,QWORD PTR [rip+0x384d]        # 5fe0 <stderr@GLIBC_2.2.5>
    2793:	   |            48 8b 38             	mov    rdi,QWORD PTR [rax]
    2796:	   |            48 8d 35 67 18 00 00 	lea    rsi,[rip+0x1867]        # 4004 <_IO_stdin_used@@Base+0x4>
    279d:	   |            48 8d 15 82 18 00 00 	lea    rdx,[rip+0x1882]        # 4026 <_IO_stdin_used@@Base+0x26>
    27a4:	   |            4c 8d 05 da 18 00 00 	lea    r8,[rip+0x18da]        # 4085 <_IO_stdin_used@@Base+0x85>
    27ab:	   |            b9 65 00 00 00       	mov    ecx,0x65
    27b0:	   |            31 c0                	xor    eax,eax
    27b2:	   |            e8 19 f9 ff ff       	call   20d0 <fprintf@plt>
    27b7:	   |            e8 84 f8 ff ff       	call   2040 <abort@plt>
    27bc:	   \----------> 48 8b 05 1d 38 00 00 	mov    rax,QWORD PTR [rip+0x381d]        # 5fe0 <stderr@GLIBC_2.2.5>
    27c3:	                48 8b 38             	mov    rdi,QWORD PTR [rax]
    27c6:	                48 8d 35 37 18 00 00 	lea    rsi,[rip+0x1837]        # 4004 <_IO_stdin_used@@Base+0x4>
    27cd:	                48 8d 15 52 18 00 00 	lea    rdx,[rip+0x1852]        # 4026 <_IO_stdin_used@@Base+0x26>
    27d4:	                4c 8d 05 f7 18 00 00 	lea    r8,[rip+0x18f7]        # 40d2 <_IO_stdin_used@@Base+0xd2>
    27db:	                b9 68 00 00 00       	mov    ecx,0x68
    27e0:	                31 c0                	xor    eax,eax
    27e2:	                e8 e9 f8 ff ff       	call   20d0 <fprintf@plt>
    27e7:	                e8 54 f8 ff ff       	call   2040 <abort@plt>
    27ec:	                0f 1f 40 00          	nop    DWORD PTR [rax+0x0]
    27f0:	                f3 0f 1e fa          	endbr64
    27f4:	                55                   	push   rbp
    27f5:	                41 57                	push   r15
    27f7:	                41 56                	push   r14
    27f9:	                41 55                	push   r13
    27fb:	                41 54                	push   r12
    27fd:	                53                   	push   rbx
    27fe:	                50                   	push   rax
    27ff:	                66 66 66 64 48 8b 04 	data16 data16 data16 mov rax,QWORD PTR fs:0x0
    2806:	                25 00 00 00 00 
    280b:	                48 83 b8 e8 ff ff ff 	cmp    QWORD PTR [rax-0x18],0x0
    2812:	                00 
    2813:	/-------------- 0f 84 47 01 00 00    	je     2960 <__safestack_init@@Base+0x340>
    2819:	|               48 89 c3             	mov    rbx,rax
    281c:	|               4c 8d a0 e8 ff ff ff 	lea    r12,[rax-0x18]
    2823:	|               8b 3d f7 38 00 00    	mov    edi,DWORD PTR [rip+0x38f7]        # 6120 <__bss_start@@Base+0x10>
    2829:	|               31 f6                	xor    esi,esi
    282b:	|               e8 70 f9 ff ff       	call   21a0 <pthread_setspecific@plt>
    2830:	|               4c 8d 35 21 39 00 00 	lea    r14,[rip+0x3921]        # 6158 <__bss_start@@Base+0x48>
    2837:	|               4c 89 f7             	mov    rdi,r14
    283a:	|               e8 41 f9 ff ff       	call   2180 <pthread_mutex_lock@plt>
    283f:	|               4c 8b 3d 3a 39 00 00 	mov    r15,QWORD PTR [rip+0x393a]        # 6180 <__bss_start@@Base+0x70>
    2846:	|               4c 89 3c 24          	mov    QWORD PTR [rsp],r15
    284a:	|               48 c7 05 2b 39 00 00 	mov    QWORD PTR [rip+0x392b],0x0        # 6180 <__bss_start@@Base+0x70>
    2851:	|               00 00 00 00 
    2855:	|               4c 89 f7             	mov    rdi,r14
    2858:	|               e8 c3 f8 ff ff       	call   2120 <pthread_mutex_unlock@plt>
    285d:	|               e8 0e f8 ff ff       	call   2070 <getpid@plt>
    2862:	|               89 c5                	mov    ebp,eax
    2864:	|               bf ba 00 00 00       	mov    edi,0xba
    2869:	|               31 c0                	xor    eax,eax
    286b:	|               e8 70 f8 ff ff       	call   20e0 <syscall@plt>
    2870:	|               49 89 c6             	mov    r14,rax
    2873:	|               49 89 e5             	mov    r13,rsp
    2876:	|  /----------- eb 2f                	jmp    28a7 <__safestack_init@@Base+0x287>
    2878:	|  |            0f 1f 84 00 00 00 00 	nop    DWORD PTR [rax+rax*1+0x0]
    287f:	|  |            00 
    2880:	|  |  /-------> 49 8b 77 08          	mov    rsi,QWORD PTR [r15+0x8]
    2884:	|  |  |         49 8b 57 10          	mov    rdx,QWORD PTR [r15+0x10]
    2888:	|  |  |         bf 0b 00 00 00       	mov    edi,0xb
    288d:	|  |  |         31 c0                	xor    eax,eax
    288f:	|  |  |         e8 4c f8 ff ff       	call   20e0 <syscall@plt>
    2894:	|  |  |         49 8b 07             	mov    rax,QWORD PTR [r15]
    2897:	|  |  |         49 89 45 00          	mov    QWORD PTR [r13+0x0],rax
    289b:	|  |  |         4c 89 ff             	mov    rdi,r15
    289e:	|  |  |         e8 8d f7 ff ff       	call   2030 <free@plt>
    28a3:	|  |  |         4d 8b 7d 00          	mov    r15,QWORD PTR [r13+0x0]
    28a7:	|  >--|-------> 4d 85 ff             	test   r15,r15
    28aa:	|  |  |  /----- 74 3c                	je     28e8 <__safestack_init@@Base+0x2c8>
    28ac:	|  |  |  |      41 39 6f 18          	cmp    DWORD PTR [r15+0x18],ebp
    28b0:	|  |  +--|----- 75 ce                	jne    2880 <__safestack_init@@Base+0x260>
    28b2:	|  |  |  |      49 8b 57 20          	mov    rdx,QWORD PTR [r15+0x20]
    28b6:	|  |  |  |      bf ea 00 00 00       	mov    edi,0xea
    28bb:	|  |  |  |      89 ee                	mov    esi,ebp
    28bd:	|  |  |  |      31 c9                	xor    ecx,ecx
    28bf:	|  |  |  |      31 c0                	xor    eax,eax
    28c1:	|  |  |  |      e8 1a f8 ff ff       	call   20e0 <syscall@plt>
    28c6:	|  |  |  |      83 f8 ff             	cmp    eax,0xffffffff
    28c9:	|  |  |  |  /-- 75 15                	jne    28e0 <__safestack_init@@Base+0x2c0>
    28cb:	|  |  |  |  |   e8 80 f7 ff ff       	call   2050 <__errno_location@plt>
    28d0:	|  |  |  |  |   83 38 03             	cmp    DWORD PTR [rax],0x3
    28d3:	|  |  \--|--|-- 74 ab                	je     2880 <__safestack_init@@Base+0x260>
    28d5:	|  |     |  |   4d 89 fd             	mov    r13,r15
    28d8:	|  |     |  |   4d 8b 3f             	mov    r15,QWORD PTR [r15]
    28db:	|  +-----|--|-- eb ca                	jmp    28a7 <__safestack_init@@Base+0x287>
    28dd:	|  |     |  |   0f 1f 00             	nop    DWORD PTR [rax]
    28e0:	|  |     |  \-> 4d 89 fd             	mov    r13,r15
    28e3:	|  |     |      4d 8b 3f             	mov    r15,QWORD PTR [r15]
    28e6:	|  \-----|----- eb bf                	jmp    28a7 <__safestack_init@@Base+0x287>
    28e8:	|        \----> bf 28 00 00 00       	mov    edi,0x28
    28ed:	|               e8 3e f8 ff ff       	call   2130 <malloc@plt>
    28f2:	|               49 89 c7             	mov    r15,rax
    28f5:	|               49 8b 0c 24          	mov    rcx,QWORD PTR [r12]
    28f9:	|               48 8b 93 f8 ff ff ff 	mov    rdx,QWORD PTR [rbx-0x8]
    2900:	|               48 29 d1             	sub    rcx,rdx
    2903:	|               48 89 48 08          	mov    QWORD PTR [rax+0x8],rcx
    2907:	|               48 03 93 f0 ff ff ff 	add    rdx,QWORD PTR [rbx-0x10]
    290e:	|               48 89 50 10          	mov    QWORD PTR [rax+0x10],rdx
    2912:	|               89 68 18             	mov    DWORD PTR [rax+0x18],ebp
    2915:	|               4c 89 70 20          	mov    QWORD PTR [rax+0x20],r14
    2919:	|               48 8d 1d 38 38 00 00 	lea    rbx,[rip+0x3838]        # 6158 <__bss_start@@Base+0x48>
    2920:	|               48 89 df             	mov    rdi,rbx
    2923:	|               e8 58 f8 ff ff       	call   2180 <pthread_mutex_lock@plt>
    2928:	|               48 8b 05 51 38 00 00 	mov    rax,QWORD PTR [rip+0x3851]        # 6180 <__bss_start@@Base+0x70>
    292f:	|               49 89 45 00          	mov    QWORD PTR [r13+0x0],rax
    2933:	|               48 8b 04 24          	mov    rax,QWORD PTR [rsp]
    2937:	|               49 89 07             	mov    QWORD PTR [r15],rax
    293a:	|               4c 89 3d 3f 38 00 00 	mov    QWORD PTR [rip+0x383f],r15        # 6180 <__bss_start@@Base+0x70>
    2941:	|               48 89 df             	mov    rdi,rbx
    2944:	|               e8 d7 f7 ff ff       	call   2120 <pthread_mutex_unlock@plt>
    2949:	|               49 c7 04 24 00 00 00 	mov    QWORD PTR [r12],0x0
    2950:	|               00 
    2951:	|               48 83 c4 08          	add    rsp,0x8
    2955:	|               5b                   	pop    rbx
    2956:	|               41 5c                	pop    r12
    2958:	|               41 5d                	pop    r13
    295a:	|               41 5e                	pop    r14
    295c:	|               41 5f                	pop    r15
    295e:	|               5d                   	pop    rbp
    295f:	|               c3                   	ret
    2960:	\-------------> 48 8b 05 79 36 00 00 	mov    rax,QWORD PTR [rip+0x3679]        # 5fe0 <stderr@GLIBC_2.2.5>
    2967:	                48 8b 38             	mov    rdi,QWORD PTR [rax]
    296a:	                48 8d 35 93 16 00 00 	lea    rsi,[rip+0x1693]        # 4004 <_IO_stdin_used@@Base+0x4>
    2971:	                48 8d 15 ae 16 00 00 	lea    rdx,[rip+0x16ae]        # 4026 <_IO_stdin_used@@Base+0x26>
    2978:	                4c 8d 05 82 17 00 00 	lea    r8,[rip+0x1782]        # 4101 <_IO_stdin_used@@Base+0x101>
    297f:	                b9 a1 00 00 00       	mov    ecx,0xa1
    2984:	                31 c0                	xor    eax,eax
    2986:	                e8 45 f7 ff ff       	call   20d0 <fprintf@plt>
    298b:	                e8 b0 f6 ff ff       	call   2040 <abort@plt>

0000000000002990 <__get_unsafe_stack_bottom@@Base>:
    2990:	f3 0f 1e fa          	endbr64
    2994:	50                   	push   rax
    2995:	66 66 66 64 48 8b 04 	data16 data16 data16 mov rax,QWORD PTR fs:0x0
    299c:	25 00 00 00 00 
    29a1:	48 8b 80 e8 ff ff ff 	mov    rax,QWORD PTR [rax-0x18]
    29a8:	59                   	pop    rcx
    29a9:	c3                   	ret
    29aa:	66 0f 1f 44 00 00    	nop    WORD PTR [rax+rax*1+0x0]

00000000000029b0 <__get_unsafe_stack_top@@Base>:
    29b0:	f3 0f 1e fa          	endbr64
    29b4:	50                   	push   rax
    29b5:	66 66 66 64 48 8b 04 	data16 data16 data16 mov rax,QWORD PTR fs:0x0
    29bc:	25 00 00 00 00 
    29c1:	48 8b 88 e8 ff ff ff 	mov    rcx,QWORD PTR [rax-0x18]
    29c8:	48 03 88 f0 ff ff ff 	add    rcx,QWORD PTR [rax-0x10]
    29cf:	48 89 c8             	mov    rax,rcx
    29d2:	59                   	pop    rcx
    29d3:	c3                   	ret
    29d4:	66 2e 0f 1f 84 00 00 	cs nop WORD PTR [rax+rax*1+0x0]
    29db:	00 00 00 
    29de:	66 90                	xchg   ax,ax

00000000000029e0 <__get_unsafe_stack_start@@Base>:
    29e0:	f3 0f 1e fa          	endbr64
    29e4:	50                   	push   rax
    29e5:	66 66 66 64 48 8b 04 	data16 data16 data16 mov rax,QWORD PTR fs:0x0
    29ec:	25 00 00 00 00 
    29f1:	48 8b 80 e8 ff ff ff 	mov    rax,QWORD PTR [rax-0x18]
    29f8:	59                   	pop    rcx
    29f9:	c3                   	ret
    29fa:	66 0f 1f 44 00 00    	nop    WORD PTR [rax+rax*1+0x0]

0000000000002a00 <__get_unsafe_stack_ptr@@Base>:
    2a00:	    f3 0f 1e fa          	endbr64
    2a04:	    50                   	push   rax
    2a05:	    64 48 8b 04 25 00 00 	mov    rax,QWORD PTR fs:0x0
    2a0c:	    00 00 
    2a0e:	    48 03 05 93 35 00 00 	add    rax,QWORD PTR [rip+0x3593]        # 5fa8 <__safestack_unsafe_stack_ptr@@Base+0x5fa8>
    2a15:	    48 8b 00             	mov    rax,QWORD PTR [rax]
    2a18:	    59                   	pop    rcx
    2a19:	    c3                   	ret
    2a1a:	    66 90                	xchg   ax,ax
    2a1c:	    0f 1f 40 00          	nop    DWORD PTR [rax+0x0]
    2a20:	    f3 0f 1e fa          	endbr64
    2a24:	    41 57                	push   r15
    2a26:	    41 56                	push   r14
    2a28:	    41 55                	push   r13
    2a2a:	    41 54                	push   r12
    2a2c:	    53                   	push   rbx
    2a2d:	    48 89 cb             	mov    rbx,rcx
    2a30:	    49 89 d6             	mov    r14,rdx
    2a33:	    49 89 f7             	mov    r15,rsi
    2a36:	    49 89 fc             	mov    r12,rdi
    2a39:	    48 c7 c7 ff ff ff ff 	mov    rdi,0xffffffffffffffff
    2a40:	    4c 89 e6             	mov    rsi,r12
    2a43:	    e8 f8 f6 ff ff       	call   2140 <dlsym@plt>
    2a48:	    48 85 c0             	test   rax,rax
    2a4b:	/-- 75 14                	jne    2a61 <__get_unsafe_stack_ptr@@Base+0x61>
    2a4d:	|   45 31 ed             	xor    r13d,r13d
    2a50:	|   31 ff                	xor    edi,edi
    2a52:	|   4c 89 e6             	mov    rsi,r12
    2a55:	|   e8 e6 f6 ff ff       	call   2140 <dlsym@plt>
    2a5a:	|   48 39 d8             	cmp    rax,rbx
    2a5d:	|   49 0f 44 c5          	cmove  rax,r13
    2a61:	\-> 49 89 07             	mov    QWORD PTR [r15],rax
    2a64:	    48 85 c0             	test   rax,rax
    2a67:	    0f 95 c1             	setne  cl
    2a6a:	    49 39 de             	cmp    r14,rbx
    2a6d:	    0f 94 c0             	sete   al
    2a70:	    20 c8                	and    al,cl
    2a72:	    5b                   	pop    rbx
    2a73:	    41 5c                	pop    r12
    2a75:	    41 5d                	pop    r13
    2a77:	    41 5e                	pop    r14
    2a79:	    41 5f                	pop    r15
    2a7b:	    c3                   	ret
    2a7c:	    0f 1f 40 00          	nop    DWORD PTR [rax+0x0]
    2a80:	    f3 0f 1e fa          	endbr64
    2a84:	    41 57                	push   r15
    2a86:	    41 56                	push   r14
    2a88:	    53                   	push   rbx
    2a89:	    4c 89 c3             	mov    rbx,r8
    2a8c:	    49 89 ce             	mov    r14,rcx
    2a8f:	    49 89 d7             	mov    r15,rdx
    2a92:	    48 89 f2             	mov    rdx,rsi
    2a95:	    48 89 fe             	mov    rsi,rdi
    2a98:	    48 c7 c7 ff ff ff ff 	mov    rdi,0xffffffffffffffff
    2a9f:	    e8 cc f6 ff ff       	call   2170 <dlvsym@plt>
    2aa4:	    49 89 07             	mov    QWORD PTR [r15],rax
    2aa7:	    48 85 c0             	test   rax,rax
    2aaa:	    0f 95 c1             	setne  cl
    2aad:	    49 39 de             	cmp    r14,rbx
    2ab0:	    0f 94 c0             	sete   al
    2ab3:	    20 c8                	and    al,cl
    2ab5:	    5b                   	pop    rbx
    2ab6:	    41 5e                	pop    r14
    2ab8:	    41 5f                	pop    r15
    2aba:	    c3                   	ret
    2abb:	    90                   	nop
    2abc:	    0f 1f 40 00          	nop    DWORD PTR [rax+0x0]

0000000000002ac0 <g_arg2setyy@@Base>:
    2ac0:	b8 01 00 00 00       	mov    eax,0x1
    2ac5:	c3                   	ret
    2ac6:	66 2e 0f 1f 84 00 00 	cs nop WORD PTR [rax+rax*1+0x0]
    2acd:	00 00 00 

0000000000002ad0 <g_arg2setxx@@Base>:
    2ad0:	31 c0                	xor    eax,eax
    2ad2:	c3                   	ret
    2ad3:	66 2e 0f 1f 84 00 00 	cs nop WORD PTR [rax+rax*1+0x0]
    2ada:	00 00 00 
    2add:	0f 1f 00             	nop    DWORD PTR [rax]

0000000000002ae0 <g_yyret@@Base>:
    2ae0:	b8 34 00 00 00       	mov    eax,0x34
    2ae5:	c3                   	ret
    2ae6:	66 2e 0f 1f 84 00 00 	cs nop WORD PTR [rax+rax*1+0x0]
    2aed:	00 00 00 
    2af0:	b8 35 00 00 00       	mov    eax,0x35
    2af5:	c3                   	ret
    2af6:	66 2e 0f 1f 84 00 00 	cs nop WORD PTR [rax+rax*1+0x0]
    2afd:	00 00 00 

0000000000002b00 <g_z1@@Base>:
    2b00:	31 c0                	xor    eax,eax
    2b02:	c3                   	ret
    2b03:	66 2e 0f 1f 84 00 00 	cs nop WORD PTR [rax+rax*1+0x0]
    2b0a:	00 00 00 
    2b0d:	0f 1f 00             	nop    DWORD PTR [rax]

0000000000002b10 <g_rax2rsi@@Base>:
    2b10:	48 89 c6             	mov    rsi,rax
    2b13:	c3                   	ret
    2b14:	66 2e 0f 1f 84 00 00 	cs nop WORD PTR [rax+rax*1+0x0]
    2b1b:	00 00 00 
    2b1e:	66 90                	xchg   ax,ax

0000000000002b20 <g_rax2rdi@@Base>:
    2b20:	48 89 c7             	mov    rdi,rax
    2b23:	c3                   	ret
    2b24:	66 2e 0f 1f 84 00 00 	cs nop WORD PTR [rax+rax*1+0x0]
    2b2b:	00 00 00 
    2b2e:	66 90                	xchg   ax,ax
    2b30:	48 8b 05 99 35 00 00 	mov    rax,QWORD PTR [rip+0x3599]        # 60d0 <binsh@@Base>
    2b37:	c3                   	ret
    2b38:	0f 1f 84 00 00 00 00 	nop    DWORD PTR [rax+rax*1+0x0]
    2b3f:	00 
    2b40:	48 8b 05 89 35 00 00 	mov    rax,QWORD PTR [rip+0x3589]        # 60d0 <binsh@@Base>
    2b47:	c3                   	ret
    2b48:	0f 1f 84 00 00 00 00 	nop    DWORD PTR [rax+rax*1+0x0]
    2b4f:	00 
    2b50:	48 8b 05 79 35 00 00 	mov    rax,QWORD PTR [rip+0x3579]        # 60d0 <binsh@@Base>
    2b57:	c3                   	ret
    2b58:	0f 1f 84 00 00 00 00 	nop    DWORD PTR [rax+rax*1+0x0]
    2b5f:	00 

0000000000002b60 <g_rax2rdx@@Base>:
    2b60:	48 89 c2             	mov    rdx,rax
    2b63:	c3                   	ret
    2b64:	66 2e 0f 1f 84 00 00 	cs nop WORD PTR [rax+rax*1+0x0]
    2b6b:	00 00 00 
    2b6e:	66 90                	xchg   ax,ax

0000000000002b70 <g_rsi2rax@@Base>:
    2b70:	48 89 f0             	mov    rax,rsi
    2b73:	c3                   	ret
    2b74:	66 2e 0f 1f 84 00 00 	cs nop WORD PTR [rax+rax*1+0x0]
    2b7b:	00 00 00 
    2b7e:	66 90                	xchg   ax,ax

0000000000002b80 <g_rdi2rax@@Base>:
    2b80:	48 89 f8             	mov    rax,rdi
    2b83:	c3                   	ret
    2b84:	66 2e 0f 1f 84 00 00 	cs nop WORD PTR [rax+rax*1+0x0]
    2b8b:	00 00 00 
    2b8e:	66 90                	xchg   ax,ax

0000000000002b90 <g_rdx2rax@@Base>:
    2b90:	48 89 d0             	mov    rax,rdx
    2b93:	c3                   	ret
    2b94:	66 2e 0f 1f 84 00 00 	cs nop WORD PTR [rax+rax*1+0x0]
    2b9b:	00 00 00 
    2b9e:	66 90                	xchg   ax,ax

0000000000002ba0 <g_z2@@Base>:
    2ba0:	48 31 f6             	xor    rsi,rsi
    2ba3:	c3                   	ret
    2ba4:	66 2e 0f 1f 84 00 00 	cs nop WORD PTR [rax+rax*1+0x0]
    2bab:	00 00 00 
    2bae:	66 90                	xchg   ax,ax

0000000000002bb0 <g_z3@@Base>:
    2bb0:	48 31 c0             	xor    rax,rax
    2bb3:	c3                   	ret
    2bb4:	66 2e 0f 1f 84 00 00 	cs nop WORD PTR [rax+rax*1+0x0]
    2bbb:	00 00 00 
    2bbe:	66 90                	xchg   ax,ax

0000000000002bc0 <g_inc8@@Base>:
    2bc0:	48 83 c0 08          	add    rax,0x8
    2bc4:	c3                   	ret
    2bc5:	66 2e 0f 1f 84 00 00 	cs nop WORD PTR [rax+rax*1+0x0]
    2bcc:	00 00 00 
    2bcf:	90                   	nop

0000000000002bd0 <g_inc32@@Base>:
    2bd0:	48 83 c0 20          	add    rax,0x20
    2bd4:	c3                   	ret
    2bd5:	66 2e 0f 1f 84 00 00 	cs nop WORD PTR [rax+rax*1+0x0]
    2bdc:	00 00 00 
    2bdf:	90                   	nop

0000000000002be0 <g_inc58@@Base>:
    2be0:	48 83 c0 3a          	add    rax,0x3a
    2be4:	c3                   	ret
    2be5:	66 2e 0f 1f 84 00 00 	cs nop WORD PTR [rax+rax*1+0x0]
    2bec:	00 00 00 
    2bef:	90                   	nop

0000000000002bf0 <g_inc59@@Base>:
    2bf0:	48 83 c0 3b          	add    rax,0x3b
    2bf4:	c3                   	ret
    2bf5:	66 2e 0f 1f 84 00 00 	cs nop WORD PTR [rax+rax*1+0x0]
    2bfc:	00 00 00 
    2bff:	90                   	nop

0000000000002c00 <g_inc@@Base>:
    2c00:	48 83 c0 01          	add    rax,0x1
    2c04:	c3                   	ret
    2c05:	66 2e 0f 1f 84 00 00 	cs nop WORD PTR [rax+rax*1+0x0]
    2c0c:	00 00 00 
    2c0f:	90                   	nop

0000000000002c10 <g_z5@@Base>:
    2c10:	48 c7 c2 00 00 00 00 	mov    rdx,0x0
    2c17:	c3                   	ret
    2c18:	0f 1f 84 00 00 00 00 	nop    DWORD PTR [rax+rax*1+0x0]
    2c1f:	00 

0000000000002c20 <g_poprdx@@Base>:
    2c20:	48 c7 c2 00 00 00 00 	mov    rdx,0x0
    2c27:	52                   	push   rdx
    2c28:	5a                   	pop    rdx
    2c29:	c3                   	ret
    2c2a:	66 0f 1f 44 00 00    	nop    WORD PTR [rax+rax*1+0x0]
    2c30:	48 8d 47 02          	lea    rax,[rdi+0x2]
    2c34:	c3                   	ret
    2c35:	66 2e 0f 1f 84 00 00 	cs nop WORD PTR [rax+rax*1+0x0]
    2c3c:	00 00 00 
    2c3f:	90                   	nop

0000000000002c40 <gaddxx@@Base>:
    2c40:	48 8d 47 01          	lea    rax,[rdi+0x1]
    2c44:	c3                   	ret
    2c45:	66 2e 0f 1f 84 00 00 	cs nop WORD PTR [rax+rax*1+0x0]
    2c4c:	00 00 00 
    2c4f:	90                   	nop

0000000000002c50 <gaddxy@@Base>:
    2c50:	48 8d 04 37          	lea    rax,[rdi+rsi*1]
    2c54:	c3                   	ret
    2c55:	66 2e 0f 1f 84 00 00 	cs nop WORD PTR [rax+rax*1+0x0]
    2c5c:	00 00 00 
    2c5f:	90                   	nop

0000000000002c60 <gaddxyz@@Base>:
    2c60:	48 8d 04 37          	lea    rax,[rdi+rsi*1]
    2c64:	48 01 d0             	add    rax,rdx
    2c67:	c3                   	ret
    2c68:	0f 1f 84 00 00 00 00 	nop    DWORD PTR [rax+rax*1+0x0]
    2c6f:	00 

0000000000002c70 <g_s1@@Base>:
    2c70:	48 8b 36             	mov    rsi,QWORD PTR [rsi]
    2c73:	31 c0                	xor    eax,eax
    2c75:	e9 66 f4 ff ff       	jmp    20e0 <syscall@plt>
    2c7a:	66 0f 1f 44 00 00    	nop    WORD PTR [rax+rax*1+0x0]

0000000000002c80 <g_syscall@@Base>:
    2c80:	48 89 f8             	mov    rax,rdi
    2c83:	48 31 f6             	xor    rsi,rsi
    2c86:	48 31 f6             	xor    rsi,rsi
    2c89:	48 31 d2             	xor    rdx,rdx
    2c8c:	0f 05                	syscall
    2c8e:	31 c0                	xor    eax,eax
    2c90:	c3                   	ret
    2c91:	66 2e 0f 1f 84 00 00 	cs nop WORD PTR [rax+rax*1+0x0]
    2c98:	00 00 00 
    2c9b:	0f 1f 44 00 00       	nop    DWORD PTR [rax+rax*1+0x0]
    2ca0:	48 89 f8             	mov    rax,rdi
    2ca3:	48 89 f7             	mov    rdi,rsi
    2ca6:	48 31 f6             	xor    rsi,rsi
    2ca9:	48 31 d2             	xor    rdx,rdx
    2cac:	0f 05                	syscall
    2cae:	31 c0                	xor    eax,eax
    2cb0:	c3                   	ret
    2cb1:	66 2e 0f 1f 84 00 00 	cs nop WORD PTR [rax+rax*1+0x0]
    2cb8:	00 00 00 
    2cbb:	0f 1f 44 00 00       	nop    DWORD PTR [rax+rax*1+0x0]

0000000000002cc0 <g_s2@@Base>:
    2cc0:	48 8b 06             	mov    rax,QWORD PTR [rsi]
    2cc3:	48 8b 56 08          	mov    rdx,QWORD PTR [rsi+0x8]
    2cc7:	48 89 c6             	mov    rsi,rax
    2cca:	31 c0                	xor    eax,eax
    2ccc:	e9 0f f4 ff ff       	jmp    20e0 <syscall@plt>
    2cd1:	66 2e 0f 1f 84 00 00 	cs nop WORD PTR [rax+rax*1+0x0]
    2cd8:	00 00 00 
    2cdb:	0f 1f 44 00 00       	nop    DWORD PTR [rax+rax*1+0x0]

0000000000002ce0 <g_s3@@Base>:
    2ce0:	48 8b 06             	mov    rax,QWORD PTR [rsi]
    2ce3:	48 8b 56 08          	mov    rdx,QWORD PTR [rsi+0x8]
    2ce7:	48 8b 4e 10          	mov    rcx,QWORD PTR [rsi+0x10]
    2ceb:	48 89 c6             	mov    rsi,rax
    2cee:	31 c0                	xor    eax,eax
    2cf0:	e9 eb f3 ff ff       	jmp    20e0 <syscall@plt>
    2cf5:	66 2e 0f 1f 84 00 00 	cs nop WORD PTR [rax+rax*1+0x0]
    2cfc:	00 00 00 
    2cff:	90                   	nop

0000000000002d00 <g_s4@@Base>:
    2d00:	48 8b 06             	mov    rax,QWORD PTR [rsi]
    2d03:	48 8b 56 08          	mov    rdx,QWORD PTR [rsi+0x8]
    2d07:	48 8b 4e 18          	mov    rcx,QWORD PTR [rsi+0x18]
    2d0b:	4c 8b 46 20          	mov    r8,QWORD PTR [rsi+0x20]
    2d0f:	48 89 c6             	mov    rsi,rax
    2d12:	31 c0                	xor    eax,eax
    2d14:	e9 c7 f3 ff ff       	jmp    20e0 <syscall@plt>
    2d19:	0f 1f 80 00 00 00 00 	nop    DWORD PTR [rax+0x0]

0000000000002d20 <g_subxy@@Base>:
    2d20:	48 89 f8             	mov    rax,rdi
    2d23:	48 29 f0             	sub    rax,rsi
    2d26:	c3                   	ret
    2d27:	66 0f 1f 84 00 00 00 	nop    WORD PTR [rax+rax*1+0x0]
    2d2e:	00 00 

0000000000002d30 <g_subyx@@Base>:
    2d30:	48 89 f0             	mov    rax,rsi
    2d33:	48 29 f8             	sub    rax,rdi
    2d36:	c3                   	ret
    2d37:	66 0f 1f 84 00 00 00 	nop    WORD PTR [rax+rax*1+0x0]
    2d3e:	00 00 

0000000000002d40 <g_st@@Base>:
    2d40:	48 89 37             	mov    QWORD PTR [rdi],rsi
    2d43:	31 c0                	xor    eax,eax
    2d45:	c3                   	ret
    2d46:	66 2e 0f 1f 84 00 00 	cs nop WORD PTR [rax+rax*1+0x0]
    2d4d:	00 00 00 

0000000000002d50 <g_st2@@Base>:
    2d50:	48 89 3e             	mov    QWORD PTR [rsi],rdi
    2d53:	31 c0                	xor    eax,eax
    2d55:	c3                   	ret
    2d56:	66 2e 0f 1f 84 00 00 	cs nop WORD PTR [rax+rax*1+0x0]
    2d5d:	00 00 00 

0000000000002d60 <g_st3@@Base>:
    2d60:	48 89 f8             	mov    rax,rdi
    2d63:	48 89 36             	mov    QWORD PTR [rsi],rsi
    2d66:	c3                   	ret
    2d67:	66 0f 1f 84 00 00 00 	nop    WORD PTR [rax+rax*1+0x0]
    2d6e:	00 00 

0000000000002d70 <g_st4@@Base>:
    2d70:	48 89 f0             	mov    rax,rsi
    2d73:	48 89 3f             	mov    QWORD PTR [rdi],rdi
    2d76:	c3                   	ret
    2d77:	66 0f 1f 84 00 00 00 	nop    WORD PTR [rax+rax*1+0x0]
    2d7e:	00 00 

0000000000002d80 <g_st5@@Base>:
    2d80:	48 89 f0             	mov    rax,rsi
    2d83:	48 89 3f             	mov    QWORD PTR [rdi],rdi
    2d86:	c3                   	ret
    2d87:	66 0f 1f 84 00 00 00 	nop    WORD PTR [rax+rax*1+0x0]
    2d8e:	00 00 

0000000000002d90 <g_ld@@Base>:
    2d90:	48 8b 07             	mov    rax,QWORD PTR [rdi]
    2d93:	c3                   	ret
    2d94:	66 2e 0f 1f 84 00 00 	cs nop WORD PTR [rax+rax*1+0x0]
    2d9b:	00 00 00 
    2d9e:	66 90                	xchg   ax,ax

0000000000002da0 <g_ld2@@Base>:
    2da0:	48 8b 06             	mov    rax,QWORD PTR [rsi]
    2da3:	c3                   	ret
    2da4:	66 2e 0f 1f 84 00 00 	cs nop WORD PTR [rax+rax*1+0x0]
    2dab:	00 00 00 
    2dae:	66 90                	xchg   ax,ax

0000000000002db0 <g3@@Base>:
    2db0:	    48 8d 0d f9 01 00 00 	lea    rcx,[rip+0x1f9]        # 2fb0 <g_sh2@@Base>
    2db7:	    48 39 cf             	cmp    rdi,rcx
    2dba:	/-- 75 08                	jne    2dc4 <g3@@Base+0x14>
    2dbc:	|   48 89 f8             	mov    rax,rdi
    2dbf:	|   48 89 f7             	mov    rdi,rsi
    2dc2:	|   ff e0                	jmp    rax
    2dc4:	\-> 67 0f b9 40 02       	ud1    eax,DWORD PTR [eax+0x2]
    2dc9:	    0f 1f 80 00 00 00 00 	nop    DWORD PTR [rax+0x0]

0000000000002dd0 <g4@@Base>:
    2dd0:	    48 8d 05 d9 01 00 00 	lea    rax,[rip+0x1d9]        # 2fb0 <g_sh2@@Base>
    2dd7:	    48 39 c6             	cmp    rsi,rax
    2dda:	/-- 75 02                	jne    2dde <g4@@Base+0xe>
    2ddc:	|   ff e6                	jmp    rsi
    2dde:	\-> 67 0f b9 40 02       	ud1    eax,DWORD PTR [eax+0x2]
    2de3:	    66 2e 0f 1f 84 00 00 	cs nop WORD PTR [rax+rax*1+0x0]
    2dea:	    00 00 00 
    2ded:	    0f 1f 00             	nop    DWORD PTR [rax]

0000000000002df0 <g_icall2@@Base>:
    2df0:	    48 8d 05 c9 01 00 00 	lea    rax,[rip+0x1c9]        # 2fc0 <g_sh3@@Base>
    2df7:	    48 39 c7             	cmp    rdi,rax
    2dfa:	/-- 75 02                	jne    2dfe <g_icall2@@Base+0xe>
    2dfc:	|   ff e7                	jmp    rdi
    2dfe:	\-> 67 0f b9 40 02       	ud1    eax,DWORD PTR [eax+0x2]
    2e03:	    66 2e 0f 1f 84 00 00 	cs nop WORD PTR [rax+rax*1+0x0]
    2e0a:	    00 00 00 
    2e0d:	    0f 1f 00             	nop    DWORD PTR [rax]
    2e10:	    48 c7 c0 00 f0 ff ff 	mov    rax,0xfffffffffffff000
    2e17:	    48 23 05 aa 31 00 00 	and    rax,QWORD PTR [rip+0x31aa]        # 5fc8 <_IO_stdin_used@@Base+0x1fc8>
    2e1e:	    c3                   	ret
    2e1f:	    90                   	nop

0000000000002e20 <g_printf@@Base>:
    2e20:	50                   	push   rax
    2e21:	48 89 fe             	mov    rsi,rdi
    2e24:	48 8d 3d fc 12 00 00 	lea    rdi,[rip+0x12fc]        # 4127 <_IO_stdin_used@@Base+0x127>
    2e2b:	31 c0                	xor    eax,eax
    2e2d:	e8 4e f2 ff ff       	call   2080 <printf@plt>
    2e32:	31 c0                	xor    eax,eax
    2e34:	59                   	pop    rcx
    2e35:	c3                   	ret
    2e36:	66 2e 0f 1f 84 00 00 	cs nop WORD PTR [rax+rax*1+0x0]
    2e3d:	00 00 00 

0000000000002e40 <vuln_leak@@Base>:
    2e40:	41 56                	push   r14
    2e42:	53                   	push   rbx
    2e43:	50                   	push   rax
    2e44:	48 89 fb             	mov    rbx,rdi
    2e47:	4c 8d 35 dc 12 00 00 	lea    r14,[rip+0x12dc]        # 412a <_IO_stdin_used@@Base+0x12a>
    2e4e:	48 8d 35 eb ff ff ff 	lea    rsi,[rip+0xffffffffffffffeb]        # 2e40 <vuln_leak@@Base>
    2e55:	4c 89 f7             	mov    rdi,r14
    2e58:	31 c0                	xor    eax,eax
    2e5a:	e8 21 f2 ff ff       	call   2080 <printf@plt>
    2e5f:	4c 89 f7             	mov    rdi,r14
    2e62:	48 89 de             	mov    rsi,rbx
    2e65:	31 c0                	xor    eax,eax
    2e67:	48 83 c4 08          	add    rsp,0x8
    2e6b:	5b                   	pop    rbx
    2e6c:	41 5e                	pop    r14
    2e6e:	e9 0d f2 ff ff       	jmp    2080 <printf@plt>
    2e73:	66 2e 0f 1f 84 00 00 	cs nop WORD PTR [rax+rax*1+0x0]
    2e7a:	00 00 00 
    2e7d:	0f 1f 00             	nop    DWORD PTR [rax]

0000000000002e80 <vuln_overflow@@Base>:
    2e80:	41 57                	push   r15
    2e82:	41 56                	push   r14
    2e84:	53                   	push   rbx
    2e85:	4c 8b 35 1c 31 00 00 	mov    r14,QWORD PTR [rip+0x311c]        # 5fa8 <__safestack_unsafe_stack_ptr@@Base+0x5fa8>
    2e8c:	64 4d 8b 3e          	mov    r15,QWORD PTR fs:[r14]
    2e90:	49 8d 87 f0 fe ff ff 	lea    rax,[r15-0x110]
    2e97:	64 49 89 06          	mov    QWORD PTR fs:[r14],rax
    2e9b:	48 8d 3d b7 12 00 00 	lea    rdi,[rip+0x12b7]        # 4159 <_IO_stdin_used@@Base+0x159>
    2ea2:	e8 b9 f1 ff ff       	call   2060 <puts@plt>
    2ea7:	49 8d 9f f8 fe ff ff 	lea    rbx,[r15-0x108]
    2eae:	48 89 df             	mov    rdi,rbx
    2eb1:	e8 4a f2 ff ff       	call   2100 <gets@plt>
    2eb6:	48 89 df             	mov    rdi,rbx
    2eb9:	31 f6                	xor    esi,esi
    2ebb:	ba 0a 00 00 00       	mov    edx,0xa
    2ec0:	e8 2b f2 ff ff       	call   20f0 <strtol@plt>
    2ec5:	48 89 c3             	mov    rbx,rax
    2ec8:	48 8d 3d 94 12 00 00 	lea    rdi,[rip+0x1294]        # 4163 <_IO_stdin_used@@Base+0x163>
    2ecf:	e8 8c f1 ff ff       	call   2060 <puts@plt>
    2ed4:	48 63 c3             	movsxd rax,ebx
    2ed7:	48 c1 e0 04          	shl    rax,0x4
    2edb:	49 8d 3c 07          	lea    rdi,[r15+rax*1]
    2edf:	48 81 c7 00 ff ff ff 	add    rdi,0xffffffffffffff00
    2ee6:	e8 15 f2 ff ff       	call   2100 <gets@plt>
    2eeb:	64 4d 89 3e          	mov    QWORD PTR fs:[r14],r15
    2eef:	5b                   	pop    rbx
    2ef0:	41 5e                	pop    r14
    2ef2:	41 5f                	pop    r15
    2ef4:	c3                   	ret
    2ef5:	66 2e 0f 1f 84 00 00 	cs nop WORD PTR [rax+rax*1+0x0]
    2efc:	00 00 00 
    2eff:	90                   	nop

0000000000002f00 <main@@Base>:
    2f00:	          41 57                	push   r15
    2f02:	          41 56                	push   r14
    2f04:	          41 55                	push   r13
    2f06:	          41 54                	push   r12
    2f08:	          53                   	push   rbx
    2f09:	          4c 8b 35 98 30 00 00 	mov    r14,QWORD PTR [rip+0x3098]        # 5fa8 <__safestack_unsafe_stack_ptr@@Base+0x5fa8>
    2f10:	          64 4d 8b 3e          	mov    r15,QWORD PTR fs:[r14]
    2f14:	          49 8d 9f 00 fc ff ff 	lea    rbx,[r15-0x400]
    2f1b:	          64 49 89 1e          	mov    QWORD PTR fs:[r14],rbx
    2f1f:	          45 31 e4             	xor    r12d,r12d
    2f22:	          ba 00 04 00 00       	mov    edx,0x400
    2f27:	          48 89 df             	mov    rdi,rbx
    2f2a:	          31 f6                	xor    esi,esi
    2f2c:	          e8 6f f1 ff ff       	call   20a0 <memset@plt>
    2f31:	          48 89 df             	mov    rdi,rbx
    2f34:	          e8 07 ff ff ff       	call   2e40 <vuln_leak@@Base>
    2f39:	          e8 42 ff ff ff       	call   2e80 <vuln_overflow@@Base>
    2f3e:	          4c 8d 2d 8b 00 00 00 	lea    r13,[rip+0x8b]        # 2fd0 <g_xxret@@Base>
    2f45:	          31 ff                	xor    edi,edi
    2f47:	          31 db                	xor    ebx,ebx
    2f49:	      /-- eb 11                	jmp    2f5c <main@@Base+0x5c>
    2f4b:	      |   0f 1f 44 00 00       	nop    DWORD PTR [rax+rax*1+0x0]
    2f50:	/-----|-> 49 ff c4             	inc    r12
    2f53:	|     |   49 81 fc 80 00 00 00 	cmp    r12,0x80
    2f5a:	|  /--|-- 74 30                	je     2f8c <main@@Base+0x8c>
    2f5c:	|  |  \-> 4b 83 bc e7 00 fc ff 	cmp    QWORD PTR [r15+r12*8-0x400],0x0
    2f63:	|  |      ff 00 
    2f65:	+--|----- 74 e9                	je     2f50 <main@@Base+0x50>
    2f67:	|  |           4b 8b 84 e7 00 fc ff 	mov    rax,QWORD PTR [r15+r12*8-0x400]
    2f6e:	|  |           ff 
    2f6f:	|  |           48 89 c1             	mov    rcx,rax
    2f72:	|  |           4c 29 e9             	sub    rcx,r13
    2f75:	|  |           48 c1 c1 3d          	rol    rcx,0x3d
    2f79:	|  |           48 83 f9 05          	cmp    rcx,0x5
    2f7d:	|  |  /--      73 29                	jae    2fa8 <main@@Base+0xa8>
    2f7f:	|  |  |   48 89 de             	mov    rsi,rbx
    2f82:	|  |  |   ff d0                	call   rax
    2f84:	|  |  |   48 89 df             	mov    rdi,rbx
    2f87:	|  |  |   48 89 c3             	mov    rbx,rax
    2f8a:	\--|--|-- eb c4                	jmp    2f50 <main@@Base+0x50>
    2f8c:	   \--|-> 48 8d 3d 9b 11 00 00 	lea    rdi,[rip+0x119b]        # 412e <_IO_stdin_used@@Base+0x12e>
    2f93:	      |   e8 88 fe ff ff       	call   2e20 <g_printf@@Base>
    2f98:	      |   64 4d 89 3e          	mov    QWORD PTR fs:[r14],r15
    2f9c:	      |   31 c0                	xor    eax,eax
    2f9e:	      |   5b                   	pop    rbx
    2f9f:	      |   41 5c                	pop    r12
    2fa1:	      |   41 5d                	pop    r13
    2fa3:	      |   41 5e                	pop    r14
    2fa5:	      |   41 5f                	pop    r15
    2fa7:	      |   c3                   	ret
    2fa8:	      \-> 67 0f b9 40 02       	ud1    eax,DWORD PTR [eax+0x2]
    2fad:	          0f 1f 00             	nop    DWORD PTR [rax]

0000000000002fb0 <g_sh2@@Base>:
    2fb0:	e9 8b fb ff ff       	jmp    2b40 <g_rax2rdi@@Base+0x20>
    2fb5:	cc                   	int3
    2fb6:	cc                   	int3
    2fb7:	cc                   	int3
    2fb8:	0f 1f 84 00 00 00 00 	nop    DWORD PTR [rax+rax*1+0x0]
    2fbf:	00 

0000000000002fc0 <g_sh3@@Base>:
    2fc0:	e9 8b fb ff ff       	jmp    2b50 <g_rax2rdi@@Base+0x30>
    2fc5:	cc                   	int3
    2fc6:	cc                   	int3
    2fc7:	cc                   	int3
    2fc8:	0f 1f 84 00 00 00 00 	nop    DWORD PTR [rax+rax*1+0x0]
    2fcf:	00 

0000000000002fd0 <g_xxret@@Base>:
    2fd0:	e9 1b fb ff ff       	jmp    2af0 <g_yyret@@Base+0x10>
    2fd5:	cc                   	int3
    2fd6:	cc                   	int3
    2fd7:	cc                   	int3

0000000000002fd8 <g_sh@@Base>:
    2fd8:	e9 53 fb ff ff       	jmp    2b30 <g_rax2rdi@@Base+0x10>
    2fdd:	cc                   	int3
    2fde:	cc                   	int3
    2fdf:	cc                   	int3

0000000000002fe0 <gaddyy@@Base>:
    2fe0:	e9 4b fc ff ff       	jmp    2c30 <g_poprdx@@Base+0x10>
    2fe5:	cc                   	int3
    2fe6:	cc                   	int3
    2fe7:	cc                   	int3

0000000000002fe8 <g_syscall2@@Base>:
    2fe8:	e9 b3 fc ff ff       	jmp    2ca0 <g_syscall@@Base+0x20>
    2fed:	cc                   	int3
    2fee:	cc                   	int3
    2fef:	cc                   	int3

0000000000002ff0 <g_leak1@@Base>:
    2ff0:	e9 1b fe ff ff       	jmp    2e10 <g_icall2@@Base+0x20>
    2ff5:	cc                   	int3
    2ff6:	cc                   	int3
    2ff7:	cc                   	int3

Disassembly of section .fini:

0000000000002ff8 <.fini>:
    2ff8:	f3 0f 1e fa          	endbr64
    2ffc:	48 83 ec 08          	sub    rsp,0x8
    3000:	48 83 c4 08          	add    rsp,0x8
    3004:	c3                   	ret
